(dp0
I5
S'Akron'
p1
sI6
S'Alabama A&M;'
p2
sI7
S'Alabama St.'
p3
sI8
S'Alabama'
p4
sI9
S'UAB'
p5
sI14
S'Albany (NY)'
p6
sI17
S'Alcorn'
p7
sI23
S'American'
p8
sI27
S'Appalachian St.'
p9
sI28
S'Arizona St.'
p10
sI29
S'Arizona'
p11
sI30
S'Arkansas St.'
p12
sI31
S'Arkansas'
p13
sI32
S'UALR'
p14
sI37
S'Auburn'
p15
sI43
S'Austin Peay'
p16
sI47
S'Ball St.'
p17
sI48
S'Charleston So.'
p18
sI51
S'Baylor'
p19
sI61
S'Bethune-Cookman'
p20
sI62
S'Binghamton'
p21
sI66
S'Boise St.'
p22
sI67
S'Boston College'
p23
sI68
S'Boston U.'
p24
sI71
S'Bowling Green'
p25
sI72
S'Bradley'
p26
sI77
S'BYU'
p27
sI80
S'Brown'
p28
sI81
S'Bryant'
p29
sI83
S'Bucknell'
p30
sI86
S'Buffalo'
p31
sI87
S'Butler'
p32
sI90
S'Cal Poly'
p33
sI94
S'Bakersfield'
p34
sI96
S'Fresno St.'
p35
sI97
S'Cal St. Fullerton'
p36
sI99
S'Long Beach St.'
p37
sI101
S'CSUN'
p38
sI102
S'Sacramento St.'
p39
sI104
S'UC Santa Barbara'
p40
sI107
S'California'
p41
sI108
S'UC Davis'
p42
sI109
S'UC Irvine'
p43
sI110
S'UCLA'
p44
sI111
S'UC Riverside'
p45
sI115
S'Campbell'
p46
sI116
S'Canisius'
p47
sI125
S'Centenary (LA)'
p48
sI127
S'Central Conn. St.'
p49
sI128
S'UCF'
p50
sI129
S'Central Mich.'
p51
sI136
S'Chicago St.'
p52
sI140
S'Cincinnati'
p53
sI141
S'Citadel'
p54
sI147
S'Clemson'
p55
sI148
S'Cleveland St.'
p56
sI149
S'Coastal Caro.'
p57
sI153
S'Colgate'
p58
sI156
S'Colorado St.'
p59
sI157
S'Colorado'
p60
sI158
S'Columbia'
p61
sI164
S'UConn'
p62
sI165
S'Coppin St.'
p63
sI167
S'Cornell'
p64
sI169
S'Creighton'
p65
sI10411
S'USC Upstate'
p66
sI172
S'Dartmouth'
p67
sI173
S'Davidson'
p68
sI175
S'Dayton'
p69
sI176
S'DePaul'
p70
sI178
S'Delaware St.'
p71
sI180
S'Delaware'
p72
sI183
S'Denver'
p73
sI184
S'Detroit'
p74
sI189
S'Drake'
p75
sI191
S'Drexel'
p76
sI193
S'Duke'
p77
sI194
S'Duquesne'
p78
sI196
S'East Carolina'
p79
sI198
S'East Tenn. St.'
p80
sI201
S'Eastern Ill.'
p81
sI202
S'Eastern Ky.'
p82
sI204
S'Eastern Mich.'
p83
sI207
S'Eastern Wash.'
p84
sI219
S'Evansville'
p85
sI220
S'Fairfield'
p86
sI222
S'Fairleigh Dickinson'
p87
sI228
S'Florida A&M;'
p88
sI229
S'Fla. Atlantic'
p89
sI231
S'FIU'
p90
sI234
S'Florida St.'
p91
sI235
S'Florida'
p92
sI236
S'Fordham'
p93
sI244
S'Furman'
p94
sI248
S'George Mason'
p95
sI249
S'George Washington'
p96
sI251
S'Georgetown'
p97
sI253
S'Ga. Southern'
p98
sI254
S'Georgia St.'
p99
sI255
S'Georgia Tech'
p100
sI257
S'Georgia'
p101
sI260
S'Gonzaga'
p102
sI261
S'Grambling'
p103
sI270
S'Hampton'
p104
sI272
S'Hartford'
p105
sI275
S'Harvard'
p106
sI277
S'Hawaii'
p107
sI283
S'Hofstra'
p108
sI285
S'Holy Cross'
p109
sI287
S'Houston Baptist'
p110
sI288
S'Houston'
p111
sI290
S'Howard'
p112
sI294
S'Idaho St.'
p113
sI295
S'Idaho'
p114
sI299
S'Illinois St.'
p115
sI301
S'Illinois'
p116
sI302
S'Ill.-Chicago'
p117
sI305
S'Indiana St.'
p118
sI306
S'Indiana'
p119
sI308
S'IPFW'
p120
sI310
S'Iona'
p121
sI311
S'Iowa St.'
p122
sI312
S'Iowa'
p123
sI314
S'Jackson St.'
p124
sI315
S'Jacksonville St.'
p125
sI316
S'Jacksonville'
p126
sI317
S'James Madison'
p127
sI327
S'Kansas St.'
p128
sI328
S'Kansas'
p129
sI331
S'Kent St.'
p130
sI334
S'Kentucky'
p131
sI340
S'La Salle'
p132
sI342
S'Lafayette'
p133
sI346
S'Lamar'
p134
sI352
S'Lehigh'
p135
sI355
S'Liberty'
p136
sI361
S'LIU Brooklyn'
p137
sI363
S'Longwood'
p138
sI365
S'LSU'
p139
sI366
S'Louisiana Tech'
p140
sI367
S'Louisville'
p141
sI369
S'Loyola Maryland'
p142
sI370
S'Loyola Marymount'
p143
sI371
S'Loyola Chicago'
p144
sI380
S'Maine'
p145
sI381
S'Manhattan'
p146
sI386
S'Marist'
p147
sI387
S'Marquette'
p148
sI388
S'Marshall'
p149
sI391
S'UMBC'
p150
sI392
S'Maryland'
p151
sI393
S'UMES'
p152
sI400
S'Massachusetts'
p153
sI402
S'McNeese St.'
p154
sI404
S'Memphis'
p155
sI406
S'Mercer'
p156
sI414
S'Miami (OH)'
p157
sI415
S'Miami (FL)'
p158
sI416
S'Michigan St.'
p159
sI418
S'Michigan'
p160
sI419
S'Middle Tenn.'
p161
sI428
S'Minnesota'
p162
sI430
S'Mississippi St.'
p163
sI432
S'Mississippi Val.'
p164
sI433
S'Ole Miss'
p165
sI434
S'Missouri'
p166
sI439
S'Monmouth'
p167
sI440
S'Montana St.'
p168
sI441
S'Montana'
p169
sI444
S'Morehead St.'
p170
sI446
S'Morgan St.'
p171
sI450
S"Mt. St. Mary's"
p172
sI454
S'Murray St.'
p173
sI456
S'UNC Asheville'
p174
sI457
S'North Carolina'
p175
sI458
S'Charlotte'
p176
sI459
S'UNCG'
p177
sI460
S'UNCW'
p178
sI463
S'Nebraska'
p179
sI465
S'UNLV'
p180
sI466
S'Nevada'
p181
sI469
S'New Hampshire'
p182
sI471
S'NJIT'
p183
sI472
S'New Mexico St.'
p184
sI473
S'New Mexico'
p185
sI474
S'New Orleans'
p186
sI482
S'Niagara'
p187
sI483
S'Nicholls St.'
p188
sI485
S'Norfolk St.'
p189
sI488
S'N.C. A&T;'
p190
sI489
S'N.C. Central'
p191
sI490
S'North Carolina St.'
p192
sI493
S'North Dakota St.'
p193
sI494
S'North Dakota'
p194
sI497
S'North Texas'
p195
sI498
S'La.-Monroe'
p196
sI28755
S'FGCU'
p197
sI500
S'Northeastern'
p198
sI501
S'Northern Ariz.'
p199
sI502
S'Northern Colo.'
p200
sI503
S'Northern Ill.'
p201
sI504
S'UNI'
p202
sI508
S'Northwestern St.'
p203
sI509
S'Northwestern'
p204
sI513
S'Notre Dame'
p205
sI514
S'Oakland'
p206
sI518
S'Ohio St.'
p207
sI519
S'Ohio'
p208
sI521
S'Oklahoma St.'
p209
sI522
S'Oklahoma'
p210
sI523
S'Old Dominion'
p211
sI527
S'Oral Roberts'
p212
sI528
S'Oregon St.'
p213
sI529
S'Oregon'
p214
sI534
S'Pacific'
p215
sI536
S'Tex.-Pan American'
p216
sI539
S'Penn St.'
p217
sI540
S'Penn'
p218
sI541
S'Pepperdine'
p219
sI545
S'Pittsburgh'
p220
sI550
S'Portland St.'
p221
sI551
S'Portland'
p222
sI553
S'Prairie View'
p223
sI554
S'Princeton'
p224
sI556
S'Providence'
p225
sI559
S'Purdue'
p226
sI562
S'Quinnipiac'
p227
sI563
S'Radford'
p228
sI572
S'Rhode Island'
p229
sI574
S'Rice'
p230
sI575
S'Richmond'
p231
sI576
S'Rider'
p232
sI579
S'Robert Morris'
p233
sI587
S'Rutgers'
p234
sI590
S'Sacred Heart'
p235
sI14927
S'Belmont'
p236
sI596
S'St. Bonaventure'
p237
sI599
S'St. Francis Brooklyn'
p238
sI600
S'Saint Francis (PA)'
p239
sI603
S"St. John's (NY)"
p240
sI606
S"Saint Joseph's"
p241
sI609
S'Saint Louis'
p242
sI610
S"St. Mary's (CA)"
p243
sI617
S"Saint Peter's"
p244
sI624
S'Sam Houston St.'
p245
sI625
S'Samford'
p246
sI626
S'San Diego St.'
p247
sI627
S'San Diego'
p248
sI629
S'San Francisco'
p249
sI2678
S'Ark.-Pine Bluff'
p250
sI631
S'Santa Clara'
p251
sI632
S'Savannah St.'
p252
sI635
S'Seton Hall'
p253
sI639
S'Siena'
p254
sI646
S'South Ala.'
p255
sI647
S'South Carolina St.'
p256
sI648
S'South Carolina'
p257
sI649
S'South Dakota St.'
p258
sI650
S'South Dakota'
p259
sI651
S'South Fla.'
p260
sI654
S'Southeast Mo. St.'
p261
sI655
S'Southeastern La.'
p262
sI657
S'Southern California'
p263
sI659
S'Southern Ill.'
p264
sI660
S'SIUE'
p265
sI2711
S'North Florida'
p266
sI664
S'Southern Miss.'
p267
sI665
S'Southern U.'
p268
sI667
S'Southern Utah'
p269
sI669
S'Missouri St.'
p270
sI670
S'Texas St.'
p271
sI671
S'La.-Lafayette'
p272
sI674
S'Stanford'
p273
sI676
S'Stephen F. Austin'
p274
sI678
S'Stetson'
p275
sI683
S'Stony Brook'
p276
sI688
S'Syracuse'
p277
sI690
S'Temple'
p278
sI691
S'Tennessee St.'
p279
sI692
S'Tennessee Tech'
p280
sI693
S'Chattanooga'
p281
sI694
S'Tennessee'
p282
sI695
S'UT Martin'
p283
sI697
S'Texas A&M;'
p284
sI698
S'TCU'
p285
sI699
S'Texas Southern'
p286
sI700
S'Texas Tech'
p287
sI702
S'Texas-Arlington'
p288
sI703
S'Texas'
p289
sI704
S'UTEP'
p290
sI706
S'UTSA'
p291
sI709
S'Toledo'
p292
sI711
S'Towson'
p293
sI716
S'Troy'
p294
sI718
S'Tulane'
p295
sI719
S'Tulsa'
p296
sI721
S'Air Force'
p297
sI725
S'Army West Point'
p298
sI726
S'Navy'
p299
sI731
S'Utah St.'
p300
sI732
S'Utah'
p301
sI735
S'Valparaiso'
p302
sI736
S'Vanderbilt'
p303
sI738
S'Vermont'
p304
sI739
S'Villanova'
p305
sI740
S'VCU'
p306
sI741
S'VMI'
p307
sI742
S'Virginia Tech'
p308
sI746
S'Virginia'
p309
sI748
S'Wagner'
p310
sI749
S'Wake Forest'
p311
sI754
S'Washington St.'
p312
sI756
S'Washington'
p313
sI758
S'Weber St.'
p314
sI768
S'West Virginia'
p315
sI769
S'Western Caro.'
p316
sI771
S'Western Ill.'
p317
sI772
S'Western Ky.'
p318
sI774
S'Western Mich.'
p319
sI782
S'Wichita St.'
p320
sI786
S'William & Mary'
p321
sI791
S'Winston-Salem'
p322
sI792
S'Winthrop'
p323
sI794
S'Green Bay'
p324
sI796
S'Wisconsin'
p325
sI797
S'Milwaukee'
p326
sI810
S'Wright St.'
p327
sI811
S'Wyoming'
p328
sI812
S'Xavier'
p329
sI813
S'Yale'
p330
sI817
S'Youngstown St.'
p331
sI2915
S'Wofford'
p332
sI1004
S'Central Ark.'
p333
sI1014
S'Col. of Charleston'
p334
sI1068
S'Elon'
p335
sI1092
S'Gardner-Webb'
p336
sI1157
S'Kennesaw St.'
p337
sI19651
S'High Point'
p338
sI1320
S'Presbyterian'
p339
sI30024
S'Utah Valley'
p340
sI1356
S'Seattle'
p341
sI26172
S'A&M-Corpus; Chris'
p342
sI630
S'San Jose St.'
p343
sI2699
S'IUPUI'
p344
sI2707
S'UMKC'
p345
sI663
S'SMU'
p346
sI28600
S'Lipscomb'
p347
s.