(dp0
I5
S'Akron'
p1
sI6
S'Alabama A&M;'
p2
sI7
S'Alabama St.'
p3
sI8
S'Alabama'
p4
sI9
S'UAB'
p5
sI14
S'Albany (NY)'
p6
sI17
S'Alcorn'
p7
sI23
S'American'
p8
sI27
S'Appalachian St.'
p9
sI28
S'Arizona St.'
p10
sI29
S'Arizona'
p11
sI30
S'Arkansas St.'
p12
sI31
S'Arkansas'
p13
sI32
S'UALR'
p14
sI37
S'Auburn'
p15
sI43
S'Austin Peay'
p16
sI47
S'Ball St.'
p17
sI48
S'Charleston So.'
p18
sI51
S'Baylor'
p19
sI61
S'Bethune-Cookman'
p20
sI62
S'Binghamton'
p21
sI66
S'Boise St.'
p22
sI67
S'Boston College'
p23
sI68
S'Boston U.'
p24
sI71
S'Bowling Green'
p25
sI72
S'Bradley'
p26
sI77
S'BYU'
p27
sI80
S'Brown'
p28
sI81
S'Bryant'
p29
sI83
S'Bucknell'
p30
sI86
S'Buffalo'
p31
sI87
S'Butler'
p32
sI90
S'Cal Poly'
p33
sI94
S'Bakersfield'
p34
sI96
S'Fresno St.'
p35
sI97
S'Cal St. Fullerton'
p36
sI99
S'Long Beach St.'
p37
sI101
S'CSUN'
p38
sI102
S'Sacramento St.'
p39
sI104
S'UC Santa Barbara'
p40
sI107
S'California'
p41
sI108
S'UC Davis'
p42
sI109
S'UC Irvine'
p43
sI110
S'UCLA'
p44
sI111
S'UC Riverside'
p45
sI115
S'Campbell'
p46
sI116
S'Canisius'
p47
sI127
S'Central Conn. St.'
p48
sI128
S'UCF'
p49
sI129
S'Central Mich.'
p50
sI136
S'Chicago St.'
p51
sI140
S'Cincinnati'
p52
sI141
S'Citadel'
p53
sI147
S'Clemson'
p54
sI148
S'Cleveland St.'
p55
sI149
S'Coastal Caro.'
p56
sI153
S'Colgate'
p57
sI156
S'Colorado St.'
p58
sI157
S'Colorado'
p59
sI158
S'Columbia'
p60
sI164
S'UConn'
p61
sI165
S'Coppin St.'
p62
sI167
S'Cornell'
p63
sI169
S'Creighton'
p64
sI10411
S'USC Upstate'
p65
sI172
S'Dartmouth'
p66
sI173
S'Davidson'
p67
sI175
S'Dayton'
p68
sI176
S'DePaul'
p69
sI178
S'Delaware St.'
p70
sI180
S'Delaware'
p71
sI183
S'Denver'
p72
sI184
S'Detroit'
p73
sI189
S'Drake'
p74
sI191
S'Drexel'
p75
sI193
S'Duke'
p76
sI194
S'Duquesne'
p77
sI196
S'East Carolina'
p78
sI198
S'East Tenn. St.'
p79
sI201
S'Eastern Ill.'
p80
sI202
S'Eastern Ky.'
p81
sI204
S'Eastern Mich.'
p82
sI207
S'Eastern Wash.'
p83
sI219
S'Evansville'
p84
sI220
S'Fairfield'
p85
sI222
S'Fairleigh Dickinson'
p86
sI228
S'Florida A&M;'
p87
sI229
S'Fla. Atlantic'
p88
sI231
S'FIU'
p89
sI234
S'Florida St.'
p90
sI235
S'Florida'
p91
sI236
S'Fordham'
p92
sI244
S'Furman'
p93
sI248
S'George Mason'
p94
sI249
S'George Washington'
p95
sI251
S'Georgetown'
p96
sI253
S'Ga. Southern'
p97
sI254
S'Georgia St.'
p98
sI255
S'Georgia Tech'
p99
sI257
S'Georgia'
p100
sI260
S'Gonzaga'
p101
sI261
S'Grambling'
p102
sI270
S'Hampton'
p103
sI272
S'Hartford'
p104
sI275
S'Harvard'
p105
sI277
S'Hawaii'
p106
sI283
S'Hofstra'
p107
sI285
S'Holy Cross'
p108
sI287
S'Houston Baptist'
p109
sI288
S'Houston'
p110
sI290
S'Howard'
p111
sI294
S'Idaho St.'
p112
sI295
S'Idaho'
p113
sI299
S'Illinois St.'
p114
sI301
S'Illinois'
p115
sI302
S'Ill.-Chicago'
p116
sI305
S'Indiana St.'
p117
sI306
S'Indiana'
p118
sI308
S'IPFW'
p119
sI310
S'Iona'
p120
sI311
S'Iowa St.'
p121
sI312
S'Iowa'
p122
sI314
S'Jackson St.'
p123
sI315
S'Jacksonville St.'
p124
sI316
S'Jacksonville'
p125
sI317
S'James Madison'
p126
sI327
S'Kansas St.'
p127
sI328
S'Kansas'
p128
sI331
S'Kent St.'
p129
sI334
S'Kentucky'
p130
sI340
S'La Salle'
p131
sI342
S'Lafayette'
p132
sI346
S'Lamar'
p133
sI352
S'Lehigh'
p134
sI355
S'Liberty'
p135
sI361
S'LIU Brooklyn'
p136
sI363
S'Longwood'
p137
sI365
S'LSU'
p138
sI366
S'Louisiana Tech'
p139
sI367
S'Louisville'
p140
sI369
S'Loyola Maryland'
p141
sI370
S'Loyola Marymount'
p142
sI371
S'Loyola Chicago'
p143
sI380
S'Maine'
p144
sI381
S'Manhattan'
p145
sI386
S'Marist'
p146
sI387
S'Marquette'
p147
sI388
S'Marshall'
p148
sI391
S'UMBC'
p149
sI392
S'Maryland'
p150
sI393
S'UMES'
p151
sI400
S'Massachusetts'
p152
sI402
S'McNeese St.'
p153
sI404
S'Memphis'
p154
sI406
S'Mercer'
p155
sI414
S'Miami (OH)'
p156
sI415
S'Miami (FL)'
p157
sI416
S'Michigan St.'
p158
sI418
S'Michigan'
p159
sI419
S'Middle Tenn.'
p160
sI428
S'Minnesota'
p161
sI430
S'Mississippi St.'
p162
sI432
S'Mississippi Val.'
p163
sI433
S'Ole Miss'
p164
sI434
S'Missouri'
p165
sI439
S'Monmouth'
p166
sI440
S'Montana St.'
p167
sI441
S'Montana'
p168
sI444
S'Morehead St.'
p169
sI446
S'Morgan St.'
p170
sI450
S"Mt. St. Mary's"
p171
sI454
S'Murray St.'
p172
sI456
S'UNC Asheville'
p173
sI457
S'North Carolina'
p174
sI458
S'Charlotte'
p175
sI459
S'UNCG'
p176
sI460
S'UNCW'
p177
sI463
S'Nebraska'
p178
sI464
S'Omaha'
p179
sI465
S'UNLV'
p180
sI466
S'Nevada'
p181
sI469
S'New Hampshire'
p182
sI471
S'NJIT'
p183
sI472
S'New Mexico St.'
p184
sI473
S'New Mexico'
p185
sI474
S'New Orleans'
p186
sI482
S'Niagara'
p187
sI483
S'Nicholls St.'
p188
sI485
S'Norfolk St.'
p189
sI488
S'N.C. A&T;'
p190
sI489
S'N.C. Central'
p191
sI490
S'North Carolina St.'
p192
sI493
S'North Dakota St.'
p193
sI494
S'North Dakota'
p194
sI497
S'North Texas'
p195
sI498
S'La.-Monroe'
p196
sI28755
S'FGCU'
p197
sI500
S'Northeastern'
p198
sI501
S'Northern Ariz.'
p199
sI502
S'Northern Colo.'
p200
sI503
S'Northern Ill.'
p201
sI504
S'UNI'
p202
sI505
S'Northern Ky.'
p203
sI508
S'Northwestern St.'
p204
sI509
S'Northwestern'
p205
sI513
S'Notre Dame'
p206
sI514
S'Oakland'
p207
sI518
S'Ohio St.'
p208
sI519
S'Ohio'
p209
sI521
S'Oklahoma St.'
p210
sI522
S'Oklahoma'
p211
sI523
S'Old Dominion'
p212
sI527
S'Oral Roberts'
p213
sI528
S'Oregon St.'
p214
sI529
S'Oregon'
p215
sI534
S'Pacific'
p216
sI536
S'Tex.-Pan American'
p217
sI539
S'Penn St.'
p218
sI540
S'Penn'
p219
sI541
S'Pepperdine'
p220
sI545
S'Pittsburgh'
p221
sI550
S'Portland St.'
p222
sI551
S'Portland'
p223
sI553
S'Prairie View'
p224
sI554
S'Princeton'
p225
sI556
S'Providence'
p226
sI559
S'Purdue'
p227
sI562
S'Quinnipiac'
p228
sI563
S'Radford'
p229
sI572
S'Rhode Island'
p230
sI574
S'Rice'
p231
sI575
S'Richmond'
p232
sI576
S'Rider'
p233
sI579
S'Robert Morris'
p234
sI587
S'Rutgers'
p235
sI590
S'Sacred Heart'
p236
sI14927
S'Belmont'
p237
sI596
S'St. Bonaventure'
p238
sI599
S'St. Francis Brooklyn'
p239
sI600
S'Saint Francis (PA)'
p240
sI603
S"St. John's (NY)"
p241
sI606
S"Saint Joseph's"
p242
sI609
S'Saint Louis'
p243
sI610
S"St. Mary's (CA)"
p244
sI617
S"Saint Peter's"
p245
sI624
S'Sam Houston St.'
p246
sI625
S'Samford'
p247
sI626
S'San Diego St.'
p248
sI627
S'San Diego'
p249
sI629
S'San Francisco'
p250
sI2678
S'Ark.-Pine Bluff'
p251
sI631
S'Santa Clara'
p252
sI632
S'Savannah St.'
p253
sI635
S'Seton Hall'
p254
sI639
S'Siena'
p255
sI646
S'South Ala.'
p256
sI647
S'South Carolina St.'
p257
sI648
S'South Carolina'
p258
sI649
S'South Dakota St.'
p259
sI650
S'South Dakota'
p260
sI651
S'South Fla.'
p261
sI654
S'Southeast Mo. St.'
p262
sI655
S'Southeastern La.'
p263
sI657
S'Southern California'
p264
sI659
S'Southern Ill.'
p265
sI660
S'SIUE'
p266
sI2711
S'North Florida'
p267
sI664
S'Southern Miss.'
p268
sI665
S'Southern U.'
p269
sI667
S'Southern Utah'
p270
sI669
S'Missouri St.'
p271
sI670
S'Texas St.'
p272
sI671
S'La.-Lafayette'
p273
sI674
S'Stanford'
p274
sI676
S'Stephen F. Austin'
p275
sI678
S'Stetson'
p276
sI683
S'Stony Brook'
p277
sI688
S'Syracuse'
p278
sI690
S'Temple'
p279
sI691
S'Tennessee St.'
p280
sI692
S'Tennessee Tech'
p281
sI693
S'Chattanooga'
p282
sI694
S'Tennessee'
p283
sI695
S'UT Martin'
p284
sI697
S'Texas A&M;'
p285
sI698
S'TCU'
p286
sI699
S'Texas Southern'
p287
sI700
S'Texas Tech'
p288
sI702
S'Texas-Arlington'
p289
sI703
S'Texas'
p290
sI704
S'UTEP'
p291
sI706
S'UTSA'
p292
sI709
S'Toledo'
p293
sI711
S'Towson'
p294
sI716
S'Troy'
p295
sI718
S'Tulane'
p296
sI719
S'Tulsa'
p297
sI721
S'Air Force'
p298
sI725
S'Army West Point'
p299
sI726
S'Navy'
p300
sI731
S'Utah St.'
p301
sI732
S'Utah'
p302
sI735
S'Valparaiso'
p303
sI736
S'Vanderbilt'
p304
sI738
S'Vermont'
p305
sI739
S'Villanova'
p306
sI740
S'VCU'
p307
sI741
S'VMI'
p308
sI742
S'Virginia Tech'
p309
sI746
S'Virginia'
p310
sI748
S'Wagner'
p311
sI749
S'Wake Forest'
p312
sI754
S'Washington St.'
p313
sI756
S'Washington'
p314
sI758
S'Weber St.'
p315
sI768
S'West Virginia'
p316
sI769
S'Western Caro.'
p317
sI771
S'Western Ill.'
p318
sI772
S'Western Ky.'
p319
sI774
S'Western Mich.'
p320
sI782
S'Wichita St.'
p321
sI786
S'William & Mary'
p322
sI792
S'Winthrop'
p323
sI794
S'Green Bay'
p324
sI796
S'Wisconsin'
p325
sI797
S'Milwaukee'
p326
sI810
S'Wright St.'
p327
sI811
S'Wyoming'
p328
sI812
S'Xavier'
p329
sI813
S'Yale'
p330
sI817
S'Youngstown St.'
p331
sI2915
S'Wofford'
p332
sI1004
S'Central Ark.'
p333
sI1014
S'Col. of Charleston'
p334
sI1068
S'Elon'
p335
sI1092
S'Gardner-Webb'
p336
sI1157
S'Kennesaw St.'
p337
sI19651
S'High Point'
p338
sI1320
S'Presbyterian'
p339
sI30024
S'Utah Valley'
p340
sI1356
S'Seattle'
p341
sI26172
S'A&M-Corpus; Chris'
p342
sI630
S'San Jose St.'
p343
sI2699
S'IUPUI'
p344
sI2707
S'UMKC'
p345
sI663
S'SMU'
p346
sI28600
S'Lipscomb'
p347
s.