(dp0
I5
S'Akron'
p1
sI6
S'Alabama A&M;'
p2
sI7
S'Alabama St.'
p3
sI8
S'Alabama'
p4
sI9
S'UAB'
p5
sI14
S'Albany (NY)'
p6
sI17
S'Alcorn'
p7
sI23
S'American'
p8
sI27
S'Appalachian St.'
p9
sI28
S'Arizona St.'
p10
sI29
S'Arizona'
p11
sI30
S'Arkansas St.'
p12
sI31
S'Arkansas'
p13
sI32
S'UALR'
p14
sI37
S'Auburn'
p15
sI43
S'Austin Peay'
p16
sI47
S'Ball St.'
p17
sI48
S'Charleston So.'
p18
sI51
S'Baylor'
p19
sI61
S'Bethune-Cookman'
p20
sI62
S'Binghamton'
p21
sI66
S'Boise St.'
p22
sI67
S'Boston College'
p23
sI68
S'Boston U.'
p24
sI71
S'Bowling Green'
p25
sI72
S'Bradley'
p26
sI77
S'BYU'
p27
sI80
S'Brown'
p28
sI81
S'Bryant'
p29
sI83
S'Bucknell'
p30
sI86
S'Buffalo'
p31
sI87
S'Butler'
p32
sI90
S'Cal Poly'
p33
sI94
S'Bakersfield'
p34
sI96
S'Fresno St.'
p35
sI97
S'Cal St. Fullerton'
p36
sI99
S'Long Beach St.'
p37
sI101
S'CSUN'
p38
sI102
S'Sacramento St.'
p39
sI104
S'UC Santa Barbara'
p40
sI107
S'California'
p41
sI108
S'UC Davis'
p42
sI109
S'UC Irvine'
p43
sI110
S'UCLA'
p44
sI111
S'UC Riverside'
p45
sI115
S'Campbell'
p46
sI116
S'Canisius'
p47
sI127
S'Central Conn. St.'
p48
sI128
S'UCF'
p49
sI129
S'Central Mich.'
p50
sI136
S'Chicago St.'
p51
sI140
S'Cincinnati'
p52
sI141
S'Citadel'
p53
sI147
S'Clemson'
p54
sI148
S'Cleveland St.'
p55
sI149
S'Coastal Caro.'
p56
sI153
S'Colgate'
p57
sI156
S'Colorado St.'
p58
sI157
S'Colorado'
p59
sI158
S'Columbia'
p60
sI164
S'UConn'
p61
sI165
S'Coppin St.'
p62
sI167
S'Cornell'
p63
sI169
S'Creighton'
p64
sI10411
S'USC Upstate'
p65
sI172
S'Dartmouth'
p66
sI173
S'Davidson'
p67
sI175
S'Dayton'
p68
sI176
S'DePaul'
p69
sI178
S'Delaware St.'
p70
sI180
S'Delaware'
p71
sI183
S'Denver'
p72
sI184
S'Detroit'
p73
sI189
S'Drake'
p74
sI191
S'Drexel'
p75
sI193
S'Duke'
p76
sI194
S'Duquesne'
p77
sI196
S'East Carolina'
p78
sI198
S'East Tenn. St.'
p79
sI201
S'Eastern Ill.'
p80
sI202
S'Eastern Ky.'
p81
sI204
S'Eastern Mich.'
p82
sI207
S'Eastern Wash.'
p83
sI219
S'Evansville'
p84
sI220
S'Fairfield'
p85
sI222
S'Fairleigh Dickinson'
p86
sI228
S'Florida A&M;'
p87
sI229
S'Fla. Atlantic'
p88
sI231
S'FIU'
p89
sI234
S'Florida St.'
p90
sI235
S'Florida'
p91
sI236
S'Fordham'
p92
sI244
S'Furman'
p93
sI248
S'George Mason'
p94
sI249
S'George Washington'
p95
sI251
S'Georgetown'
p96
sI253
S'Ga. Southern'
p97
sI254
S'Georgia St.'
p98
sI255
S'Georgia Tech'
p99
sI257
S'Georgia'
p100
sI260
S'Gonzaga'
p101
sI261
S'Grambling'
p102
sI270
S'Hampton'
p103
sI272
S'Hartford'
p104
sI275
S'Harvard'
p105
sI277
S'Hawaii'
p106
sI283
S'Hofstra'
p107
sI285
S'Holy Cross'
p108
sI287
S'Houston Baptist'
p109
sI288
S'Houston'
p110
sI290
S'Howard'
p111
sI294
S'Idaho St.'
p112
sI295
S'Idaho'
p113
sI299
S'Illinois St.'
p114
sI301
S'Illinois'
p115
sI302
S'Ill.-Chicago'
p116
sI305
S'Indiana St.'
p117
sI306
S'Indiana'
p118
sI308
S'IPFW'
p119
sI310
S'Iona'
p120
sI311
S'Iowa St.'
p121
sI312
S'Iowa'
p122
sI314
S'Jackson St.'
p123
sI315
S'Jacksonville St.'
p124
sI316
S'Jacksonville'
p125
sI317
S'James Madison'
p126
sI327
S'Kansas St.'
p127
sI328
S'Kansas'
p128
sI331
S'Kent St.'
p129
sI334
S'Kentucky'
p130
sI340
S'La Salle'
p131
sI342
S'Lafayette'
p132
sI346
S'Lamar'
p133
sI352
S'Lehigh'
p134
sI355
S'Liberty'
p135
sI361
S'LIU Brooklyn'
p136
sI363
S'Longwood'
p137
sI365
S'LSU'
p138
sI366
S'Louisiana Tech'
p139
sI367
S'Louisville'
p140
sI369
S'Loyola Maryland'
p141
sI370
S'Loyola Marymount'
p142
sI371
S'Loyola Chicago'
p143
sI380
S'Maine'
p144
sI381
S'Manhattan'
p145
sI386
S'Marist'
p146
sI387
S'Marquette'
p147
sI388
S'Marshall'
p148
sI391
S'UMBC'
p149
sI392
S'Maryland'
p150
sI393
S'UMES'
p151
sI400
S'Massachusetts'
p152
sI402
S'McNeese St.'
p153
sI404
S'Memphis'
p154
sI406
S'Mercer'
p155
sI414
S'Miami (OH)'
p156
sI415
S'Miami (FL)'
p157
sI416
S'Michigan St.'
p158
sI418
S'Michigan'
p159
sI419
S'Middle Tenn.'
p160
sI428
S'Minnesota'
p161
sI430
S'Mississippi St.'
p162
sI432
S'Mississippi Val.'
p163
sI433
S'Ole Miss'
p164
sI434
S'Missouri'
p165
sI439
S'Monmouth'
p166
sI440
S'Montana St.'
p167
sI441
S'Montana'
p168
sI444
S'Morehead St.'
p169
sI446
S'Morgan St.'
p170
sI450
S"Mt. St. Mary's"
p171
sI454
S'Murray St.'
p172
sI456
S'UNC Asheville'
p173
sI457
S'North Carolina'
p174
sI458
S'Charlotte'
p175
sI459
S'UNCG'
p176
sI460
S'UNCW'
p177
sI463
S'Nebraska'
p178
sI464
S'Omaha'
p179
sI465
S'UNLV'
p180
sI466
S'Nevada'
p181
sI469
S'New Hampshire'
p182
sI471
S'NJIT'
p183
sI472
S'New Mexico St.'
p184
sI473
S'New Mexico'
p185
sI482
S'Niagara'
p186
sI483
S'Nicholls St.'
p187
sI485
S'Norfolk St.'
p188
sI488
S'N.C. A&T;'
p189
sI489
S'N.C. Central'
p190
sI490
S'North Carolina St.'
p191
sI493
S'North Dakota St.'
p192
sI494
S'North Dakota'
p193
sI497
S'North Texas'
p194
sI498
S'La.-Monroe'
p195
sI28755
S'FGCU'
p196
sI500
S'Northeastern'
p197
sI501
S'Northern Ariz.'
p198
sI502
S'Northern Colo.'
p199
sI503
S'Northern Ill.'
p200
sI504
S'UNI'
p201
sI508
S'Northwestern St.'
p202
sI509
S'Northwestern'
p203
sI513
S'Notre Dame'
p204
sI514
S'Oakland'
p205
sI518
S'Ohio St.'
p206
sI519
S'Ohio'
p207
sI521
S'Oklahoma St.'
p208
sI522
S'Oklahoma'
p209
sI523
S'Old Dominion'
p210
sI527
S'Oral Roberts'
p211
sI528
S'Oregon St.'
p212
sI529
S'Oregon'
p213
sI534
S'Pacific'
p214
sI536
S'Tex.-Pan American'
p215
sI539
S'Penn St.'
p216
sI540
S'Penn'
p217
sI541
S'Pepperdine'
p218
sI545
S'Pittsburgh'
p219
sI550
S'Portland St.'
p220
sI551
S'Portland'
p221
sI553
S'Prairie View'
p222
sI554
S'Princeton'
p223
sI556
S'Providence'
p224
sI559
S'Purdue'
p225
sI562
S'Quinnipiac'
p226
sI563
S'Radford'
p227
sI572
S'Rhode Island'
p228
sI574
S'Rice'
p229
sI575
S'Richmond'
p230
sI576
S'Rider'
p231
sI579
S'Robert Morris'
p232
sI587
S'Rutgers'
p233
sI590
S'Sacred Heart'
p234
sI14927
S'Belmont'
p235
sI596
S'St. Bonaventure'
p236
sI599
S'St. Francis Brooklyn'
p237
sI600
S'Saint Francis (PA)'
p238
sI603
S"St. John's (NY)"
p239
sI606
S"Saint Joseph's"
p240
sI609
S'Saint Louis'
p241
sI610
S"St. Mary's (CA)"
p242
sI617
S"Saint Peter's"
p243
sI624
S'Sam Houston St.'
p244
sI625
S'Samford'
p245
sI626
S'San Diego St.'
p246
sI627
S'San Diego'
p247
sI629
S'San Francisco'
p248
sI2678
S'Ark.-Pine Bluff'
p249
sI631
S'Santa Clara'
p250
sI632
S'Savannah St.'
p251
sI635
S'Seton Hall'
p252
sI639
S'Siena'
p253
sI646
S'South Ala.'
p254
sI647
S'South Carolina St.'
p255
sI648
S'South Carolina'
p256
sI649
S'South Dakota St.'
p257
sI650
S'South Dakota'
p258
sI651
S'South Fla.'
p259
sI654
S'Southeast Mo. St.'
p260
sI655
S'Southeastern La.'
p261
sI657
S'Southern California'
p262
sI659
S'Southern Ill.'
p263
sI660
S'SIUE'
p264
sI2711
S'North Florida'
p265
sI664
S'Southern Miss.'
p266
sI665
S'Southern U.'
p267
sI667
S'Southern Utah'
p268
sI669
S'Missouri St.'
p269
sI670
S'Texas St.'
p270
sI671
S'La.-Lafayette'
p271
sI674
S'Stanford'
p272
sI676
S'Stephen F. Austin'
p273
sI678
S'Stetson'
p274
sI683
S'Stony Brook'
p275
sI688
S'Syracuse'
p276
sI690
S'Temple'
p277
sI691
S'Tennessee St.'
p278
sI692
S'Tennessee Tech'
p279
sI693
S'Chattanooga'
p280
sI694
S'Tennessee'
p281
sI695
S'UT Martin'
p282
sI697
S'Texas A&M;'
p283
sI698
S'TCU'
p284
sI699
S'Texas Southern'
p285
sI700
S'Texas Tech'
p286
sI702
S'Texas-Arlington'
p287
sI703
S'Texas'
p288
sI704
S'UTEP'
p289
sI706
S'UTSA'
p290
sI709
S'Toledo'
p291
sI711
S'Towson'
p292
sI716
S'Troy'
p293
sI718
S'Tulane'
p294
sI719
S'Tulsa'
p295
sI721
S'Air Force'
p296
sI725
S'Army West Point'
p297
sI726
S'Navy'
p298
sI731
S'Utah St.'
p299
sI732
S'Utah'
p300
sI735
S'Valparaiso'
p301
sI736
S'Vanderbilt'
p302
sI738
S'Vermont'
p303
sI739
S'Villanova'
p304
sI740
S'VCU'
p305
sI741
S'VMI'
p306
sI742
S'Virginia Tech'
p307
sI746
S'Virginia'
p308
sI748
S'Wagner'
p309
sI749
S'Wake Forest'
p310
sI754
S'Washington St.'
p311
sI756
S'Washington'
p312
sI758
S'Weber St.'
p313
sI768
S'West Virginia'
p314
sI769
S'Western Caro.'
p315
sI771
S'Western Ill.'
p316
sI772
S'Western Ky.'
p317
sI774
S'Western Mich.'
p318
sI782
S'Wichita St.'
p319
sI786
S'William & Mary'
p320
sI792
S'Winthrop'
p321
sI794
S'Green Bay'
p322
sI796
S'Wisconsin'
p323
sI797
S'Milwaukee'
p324
sI810
S'Wright St.'
p325
sI811
S'Wyoming'
p326
sI812
S'Xavier'
p327
sI813
S'Yale'
p328
sI817
S'Youngstown St.'
p329
sI2915
S'Wofford'
p330
sI1004
S'Central Ark.'
p331
sI1014
S'Col. of Charleston'
p332
sI1068
S'Elon'
p333
sI1092
S'Gardner-Webb'
p334
sI1157
S'Kennesaw St.'
p335
sI19651
S'High Point'
p336
sI1320
S'Presbyterian'
p337
sI30024
S'Utah Valley'
p338
sI1356
S'Seattle'
p339
sI26172
S'A&M-Corpus; Chris'
p340
sI630
S'San Jose St.'
p341
sI2699
S'IUPUI'
p342
sI2707
S'UMKC'
p343
sI663
S'SMU'
p344
sI28600
S'Lipscomb'
p345
s.