(dp0
I2
S'Abilene Christian'
p1
sI5
S'Akron'
p2
sI6
S'Alabama A&M;'
p3
sI7
S'Alabama St.'
p4
sI8
S'Alabama'
p5
sI9
S'UAB'
p6
sI14
S'Albany (NY)'
p7
sI17
S'Alcorn'
p8
sI23
S'American'
p9
sI27
S'Appalachian St.'
p10
sI28
S'Arizona St.'
p11
sI29
S'Arizona'
p12
sI30
S'Arkansas St.'
p13
sI31
S'Arkansas'
p14
sI32
S'UALR'
p15
sI37
S'Auburn'
p16
sI43
S'Austin Peay'
p17
sI47
S'Ball St.'
p18
sI48
S'Charleston So.'
p19
sI51
S'Baylor'
p20
sI61
S'Bethune-Cookman'
p21
sI62
S'Binghamton'
p22
sI66
S'Boise St.'
p23
sI67
S'Boston College'
p24
sI68
S'Boston U.'
p25
sI71
S'Bowling Green'
p26
sI72
S'Bradley'
p27
sI2743
S'Incarnate Word'
p28
sI77
S'BYU'
p29
sI80
S'Brown'
p30
sI81
S'Bryant'
p31
sI83
S'Bucknell'
p32
sI86
S'Buffalo'
p33
sI87
S'Butler'
p34
sI90
S'Cal Poly'
p35
sI94
S'Bakersfield'
p36
sI96
S'Fresno St.'
p37
sI97
S'Cal St. Fullerton'
p38
sI99
S'Long Beach St.'
p39
sI101
S'CSUN'
p40
sI102
S'Sacramento St.'
p41
sI104
S'UC Santa Barbara'
p42
sI107
S'California'
p43
sI108
S'UC Davis'
p44
sI109
S'UC Irvine'
p45
sI110
S'UCLA'
p46
sI111
S'UC Riverside'
p47
sI115
S'Campbell'
p48
sI116
S'Canisius'
p49
sI127
S'Central Conn. St.'
p50
sI128
S'UCF'
p51
sI129
S'Central Mich.'
p52
sI136
S'Chicago St.'
p53
sI140
S'Cincinnati'
p54
sI141
S'Citadel'
p55
sI147
S'Clemson'
p56
sI148
S'Cleveland St.'
p57
sI149
S'Coastal Caro.'
p58
sI153
S'Colgate'
p59
sI156
S'Colorado St.'
p60
sI157
S'Colorado'
p61
sI158
S'Columbia'
p62
sI164
S'UConn'
p63
sI165
S'Coppin St.'
p64
sI167
S'Cornell'
p65
sI169
S'Creighton'
p66
sI10411
S'USC Upstate'
p67
sI172
S'Dartmouth'
p68
sI173
S'Davidson'
p69
sI175
S'Dayton'
p70
sI176
S'DePaul'
p71
sI178
S'Delaware St.'
p72
sI180
S'Delaware'
p73
sI183
S'Denver'
p74
sI184
S'Detroit'
p75
sI189
S'Drake'
p76
sI191
S'Drexel'
p77
sI193
S'Duke'
p78
sI194
S'Duquesne'
p79
sI196
S'East Carolina'
p80
sI198
S'East Tenn. St.'
p81
sI201
S'Eastern Ill.'
p82
sI202
S'Eastern Ky.'
p83
sI204
S'Eastern Mich.'
p84
sI207
S'Eastern Wash.'
p85
sI219
S'Evansville'
p86
sI220
S'Fairfield'
p87
sI222
S'Fairleigh Dickinson'
p88
sI228
S'Florida A&M;'
p89
sI229
S'Fla. Atlantic'
p90
sI231
S'FIU'
p91
sI234
S'Florida St.'
p92
sI235
S'Florida'
p93
sI236
S'Fordham'
p94
sI244
S'Furman'
p95
sI248
S'George Mason'
p96
sI249
S'George Washington'
p97
sI251
S'Georgetown'
p98
sI253
S'Ga. Southern'
p99
sI254
S'Georgia St.'
p100
sI255
S'Georgia Tech'
p101
sI257
S'Georgia'
p102
sI260
S'Gonzaga'
p103
sI261
S'Grambling'
p104
sI270
S'Hampton'
p105
sI272
S'Hartford'
p106
sI275
S'Harvard'
p107
sI277
S'Hawaii'
p108
sI283
S'Hofstra'
p109
sI285
S'Holy Cross'
p110
sI287
S'Houston Baptist'
p111
sI288
S'Houston'
p112
sI290
S'Howard'
p113
sI294
S'Idaho St.'
p114
sI295
S'Idaho'
p115
sI299
S'Illinois St.'
p116
sI301
S'Illinois'
p117
sI302
S'Ill.-Chicago'
p118
sI305
S'Indiana St.'
p119
sI306
S'Indiana'
p120
sI308
S'IPFW'
p121
sI310
S'Iona'
p122
sI311
S'Iowa St.'
p123
sI312
S'Iowa'
p124
sI314
S'Jackson St.'
p125
sI315
S'Jacksonville St.'
p126
sI316
S'Jacksonville'
p127
sI317
S'James Madison'
p128
sI327
S'Kansas St.'
p129
sI328
S'Kansas'
p130
sI331
S'Kent St.'
p131
sI334
S'Kentucky'
p132
sI340
S'La Salle'
p133
sI342
S'Lafayette'
p134
sI346
S'Lamar'
p135
sI352
S'Lehigh'
p136
sI355
S'Liberty'
p137
sI361
S'LIU Brooklyn'
p138
sI363
S'Longwood'
p139
sI365
S'LSU'
p140
sI366
S'Louisiana Tech'
p141
sI367
S'Louisville'
p142
sI368
S'UMass Lowell'
p143
sI369
S'Loyola Maryland'
p144
sI370
S'Loyola Marymount'
p145
sI371
S'Loyola Chicago'
p146
sI380
S'Maine'
p147
sI381
S'Manhattan'
p148
sI386
S'Marist'
p149
sI387
S'Marquette'
p150
sI388
S'Marshall'
p151
sI391
S'UMBC'
p152
sI392
S'Maryland'
p153
sI393
S'UMES'
p154
sI400
S'Massachusetts'
p155
sI402
S'McNeese St.'
p156
sI404
S'Memphis'
p157
sI406
S'Mercer'
p158
sI414
S'Miami (OH)'
p159
sI415
S'Miami (FL)'
p160
sI416
S'Michigan St.'
p161
sI418
S'Michigan'
p162
sI419
S'Middle Tenn.'
p163
sI428
S'Minnesota'
p164
sI430
S'Mississippi St.'
p165
sI432
S'Mississippi Val.'
p166
sI433
S'Ole Miss'
p167
sI434
S'Missouri'
p168
sI439
S'Monmouth'
p169
sI440
S'Montana St.'
p170
sI441
S'Montana'
p171
sI444
S'Morehead St.'
p172
sI446
S'Morgan St.'
p173
sI450
S"Mt. St. Mary's"
p174
sI454
S'Murray St.'
p175
sI456
S'UNC Asheville'
p176
sI457
S'North Carolina'
p177
sI458
S'Charlotte'
p178
sI459
S'UNCG'
p179
sI460
S'UNCW'
p180
sI463
S'Nebraska'
p181
sI464
S'Omaha'
p182
sI465
S'UNLV'
p183
sI466
S'Nevada'
p184
sI469
S'New Hampshire'
p185
sI471
S'NJIT'
p186
sI472
S'New Mexico St.'
p187
sI473
S'New Mexico'
p188
sI474
S'New Orleans'
p189
sI482
S'Niagara'
p190
sI483
S'Nicholls St.'
p191
sI485
S'Norfolk St.'
p192
sI488
S'N.C. A&T;'
p193
sI489
S'N.C. Central'
p194
sI490
S'North Carolina St.'
p195
sI493
S'North Dakota St.'
p196
sI494
S'North Dakota'
p197
sI497
S'North Texas'
p198
sI498
S'La.-Monroe'
p199
sI28755
S'FGCU'
p200
sI500
S'Northeastern'
p201
sI501
S'Northern Ariz.'
p202
sI502
S'Northern Colo.'
p203
sI503
S'Northern Ill.'
p204
sI504
S'UNI'
p205
sI505
S'Northern Ky.'
p206
sI508
S'Northwestern St.'
p207
sI509
S'Northwestern'
p208
sI513
S'Notre Dame'
p209
sI514
S'Oakland'
p210
sI518
S'Ohio St.'
p211
sI519
S'Ohio'
p212
sI521
S'Oklahoma St.'
p213
sI522
S'Oklahoma'
p214
sI523
S'Old Dominion'
p215
sI527
S'Oral Roberts'
p216
sI528
S'Oregon St.'
p217
sI529
S'Oregon'
p218
sI534
S'Pacific'
p219
sI536
S'Tex.-Pan American'
p220
sI539
S'Penn St.'
p221
sI540
S'Penn'
p222
sI541
S'Pepperdine'
p223
sI545
S'Pittsburgh'
p224
sI550
S'Portland St.'
p225
sI551
S'Portland'
p226
sI553
S'Prairie View'
p227
sI554
S'Princeton'
p228
sI556
S'Providence'
p229
sI559
S'Purdue'
p230
sI562
S'Quinnipiac'
p231
sI563
S'Radford'
p232
sI572
S'Rhode Island'
p233
sI574
S'Rice'
p234
sI575
S'Richmond'
p235
sI576
S'Rider'
p236
sI579
S'Robert Morris'
p237
sI587
S'Rutgers'
p238
sI590
S'Sacred Heart'
p239
sI14927
S'Belmont'
p240
sI596
S'St. Bonaventure'
p241
sI599
S'St. Francis Brooklyn'
p242
sI600
S'Saint Francis (PA)'
p243
sI603
S"St. John's (NY)"
p244
sI606
S"Saint Joseph's"
p245
sI609
S'Saint Louis'
p246
sI610
S"St. Mary's (CA)"
p247
sI617
S"Saint Peter's"
p248
sI624
S'Sam Houston St.'
p249
sI625
S'Samford'
p250
sI626
S'San Diego St.'
p251
sI627
S'San Diego'
p252
sI629
S'San Francisco'
p253
sI2678
S'Ark.-Pine Bluff'
p254
sI631
S'Santa Clara'
p255
sI632
S'Savannah St.'
p256
sI635
S'Seton Hall'
p257
sI639
S'Siena'
p258
sI646
S'South Ala.'
p259
sI647
S'South Carolina St.'
p260
sI648
S'South Carolina'
p261
sI649
S'South Dakota St.'
p262
sI650
S'South Dakota'
p263
sI651
S'South Fla.'
p264
sI654
S'Southeast Mo. St.'
p265
sI655
S'Southeastern La.'
p266
sI657
S'Southern California'
p267
sI659
S'Southern Ill.'
p268
sI660
S'SIUE'
p269
sI2711
S'North Florida'
p270
sI664
S'Southern Miss.'
p271
sI665
S'Southern U.'
p272
sI667
S'Southern Utah'
p273
sI669
S'Missouri St.'
p274
sI670
S'Texas St.'
p275
sI671
S'La.-Lafayette'
p276
sI674
S'Stanford'
p277
sI676
S'Stephen F. Austin'
p278
sI678
S'Stetson'
p279
sI683
S'Stony Brook'
p280
sI688
S'Syracuse'
p281
sI690
S'Temple'
p282
sI691
S'Tennessee St.'
p283
sI692
S'Tennessee Tech'
p284
sI693
S'Chattanooga'
p285
sI694
S'Tennessee'
p286
sI695
S'UT Martin'
p287
sI697
S'Texas A&M;'
p288
sI698
S'TCU'
p289
sI699
S'Texas Southern'
p290
sI700
S'Texas Tech'
p291
sI702
S'Texas-Arlington'
p292
sI703
S'Texas'
p293
sI704
S'UTEP'
p294
sI706
S'UTSA'
p295
sI709
S'Toledo'
p296
sI711
S'Towson'
p297
sI716
S'Troy'
p298
sI718
S'Tulane'
p299
sI719
S'Tulsa'
p300
sI721
S'Air Force'
p301
sI725
S'Army West Point'
p302
sI726
S'Navy'
p303
sI731
S'Utah St.'
p304
sI732
S'Utah'
p305
sI735
S'Valparaiso'
p306
sI736
S'Vanderbilt'
p307
sI738
S'Vermont'
p308
sI739
S'Villanova'
p309
sI740
S'VCU'
p310
sI741
S'VMI'
p311
sI742
S'Virginia Tech'
p312
sI746
S'Virginia'
p313
sI748
S'Wagner'
p314
sI749
S'Wake Forest'
p315
sI754
S'Washington St.'
p316
sI756
S'Washington'
p317
sI758
S'Weber St.'
p318
sI768
S'West Virginia'
p319
sI769
S'Western Caro.'
p320
sI771
S'Western Ill.'
p321
sI772
S'Western Ky.'
p322
sI774
S'Western Mich.'
p323
sI782
S'Wichita St.'
p324
sI786
S'William & Mary'
p325
sI792
S'Winthrop'
p326
sI794
S'Green Bay'
p327
sI796
S'Wisconsin'
p328
sI797
S'Milwaukee'
p329
sI810
S'Wright St.'
p330
sI811
S'Wyoming'
p331
sI812
S'Xavier'
p332
sI813
S'Yale'
p333
sI817
S'Youngstown St.'
p334
sI2915
S'Wofford'
p335
sI1004
S'Central Ark.'
p336
sI1014
S'Col. of Charleston'
p337
sI1068
S'Elon'
p338
sI1092
S'Gardner-Webb'
p339
sI1104
S'Grand Canyon'
p340
sI1157
S'Kennesaw St.'
p341
sI19651
S'High Point'
p342
sI1320
S'Presbyterian'
p343
sI30024
S'Utah Valley'
p344
sI1356
S'Seattle'
p345
sI26172
S'A&M-Corpus; Chris'
p346
sI630
S'San Jose St.'
p347
sI2699
S'IUPUI'
p348
sI2707
S'UMKC'
p349
sI663
S'SMU'
p350
sI28600
S'Lipscomb'
p351
s.