(dp0
I5
(lp1
F892.0
aF2073.0
aF43.03
aF283.0
aF785.0
aF36.05
aF457.0
aF649.0
aF70.42
aF2524.0
aF70.11
aF363.0
aF875.0
aF1238.0
aF34.39
aF520.0
aF432.0
aF240.0
aF129.0
aF692.0
aF832.0
aF2004.0
aF41.52
aF194.0
aF606.0
aF32.01
aF507.0
aF768.0
aF66.02
aF2365.0
aF65.69
aF425.0
aF920.0
aF1345.0
aF37.36
aF425.0
aF514.0
aF216.0
aF85.0
aF655.0
asI6
(lp2
F633.0
aF1588.0
aF39.86
aF125.0
aF429.0
aF29.14
aF417.0
aF668.0
aF62.43
aF1808.0
aF64.57
aF345.0
aF713.0
aF1058.0
aF37.79
aF339.0
aF444.0
aF233.0
aF151.0
aF562.0
aF658.0
aF1594.0
aF41.28
aF141.0
aF441.0
aF31.97
aF413.0
aF662.0
aF62.39
aF1870.0
aF66.79
aF360.0
aF749.0
aF1109.0
aF39.61
aF363.0
aF469.0
aF221.0
aF117.0
aF565.0
asI7
(lp3
F728.0
aF1841.0
aF39.54
aF165.0
aF583.0
aF28.3
aF525.0
aF869.0
aF60.41
aF2146.0
aF61.31
aF460.0
aF811.0
aF1271.0
aF36.31
aF404.0
aF551.0
aF255.0
aF163.0
aF777.0
aF715.0
aF1773.0
aF40.33
aF180.0
aF525.0
aF34.29
aF624.0
aF913.0
aF68.35
aF2234.0
aF63.83
aF408.0
aF834.0
aF1242.0
aF35.49
aF400.0
aF545.0
aF262.0
aF86.0
aF722.0
asI8
(lp4
F930.0
aF2066.0
aF45.01
aF152.0
aF510.0
aF29.8
aF461.0
aF652.0
aF70.71
aF2473.0
aF66.84
aF458.0
aF881.0
aF1339.0
aF36.19
aF454.0
aF516.0
aF351.0
aF190.0
aF675.0
aF758.0
aF1965.0
aF38.58
aF200.0
aF629.0
aF31.8
aF482.0
aF713.0
aF67.6
aF2198.0
aF59.41
aF450.0
aF788.0
aF1238.0
aF33.46
aF380.0
aF581.0
aF221.0
aF142.0
aF600.0
asI9
(lp5
F756.0
aF1725.0
aF43.83
aF239.0
aF698.0
aF34.24
aF368.0
aF513.0
aF71.73
aF2119.0
aF68.35
aF352.0
aF757.0
aF1109.0
aF35.77
aF420.0
aF387.0
aF164.0
aF97.0
aF514.0
aF699.0
aF1692.0
aF41.31
aF156.0
aF503.0
aF31.01
aF386.0
aF549.0
aF70.31
aF1940.0
aF62.58
aF333.0
aF702.0
aF1035.0
aF33.39
aF339.0
aF385.0
aF186.0
aF102.0
aF539.0
asI14
(lp6
F724.0
aF1707.0
aF42.41
aF238.0
aF631.0
aF37.72
aF327.0
aF507.0
aF64.5
aF2013.0
aF62.91
aF376.0
aF779.0
aF1155.0
aF36.09
aF371.0
aF411.0
aF150.0
aF90.0
aF505.0
aF744.0
aF1807.0
aF41.17
aF240.0
aF729.0
aF32.92
aF320.0
aF502.0
aF63.75
aF2048.0
aF64.0
aF382.0
aF698.0
aF1080.0
aF33.75
aF441.0
aF335.0
aF206.0
aF106.0
aF538.0
asI17
(lp7
F614.0
aF1664.0
aF36.9
aF116.0
aF359.0
aF32.31
aF494.0
aF781.0
aF63.25
aF1838.0
aF65.64
aF295.0
aF697.0
aF992.0
aF35.43
aF255.0
aF473.0
aF218.0
aF103.0
aF610.0
aF793.0
aF1794.0
aF44.2
aF178.0
aF555.0
aF32.07
aF494.0
aF756.0
aF65.34
aF2258.0
aF80.64
aF424.0
aF866.0
aF1290.0
aF46.07
aF479.0
aF430.0
aF236.0
aF133.0
aF621.0
asI23
(lp8
F716.0
aF1602.0
aF44.69
aF188.0
aF557.0
aF33.75
aF431.0
aF600.0
aF71.83
aF2051.0
aF66.16
aF288.0
aF756.0
aF1044.0
aF33.68
aF430.0
aF346.0
aF127.0
aF86.0
aF558.0
aF679.0
aF1614.0
aF42.07
aF175.0
aF485.0
aF36.08
aF440.0
aF604.0
aF72.85
aF1973.0
aF63.65
aF268.0
aF680.0
aF948.0
aF30.58
aF352.0
aF321.0
aF169.0
aF65.0
aF584.0
asI27
(lp9
F790.0
aF1738.0
aF45.45
aF196.0
aF582.0
aF33.68
aF489.0
aF694.0
aF70.46
aF2265.0
aF73.06
aF323.0
aF744.0
aF1067.0
aF34.42
aF327.0
aF403.0
aF179.0
aF89.0
aF541.0
aF841.0
aF1822.0
aF46.16
aF197.0
aF579.0
aF1042.29
aF390.0
aF564.0
aF69.15
aF2269.0
aF73.19
aF329.0
aF741.0
aF1070.0
aF1070.0
aF441.0
aF382.0
aF196.0
aF77.0
aF598.0
asI28
(lp10
F719.0
aF1674.0
aF42.95
aF240.0
aF684.0
aF35.09
aF305.0
aF486.0
aF62.76
aF1983.0
aF63.97
aF290.0
aF701.0
aF991.0
aF31.97
aF463.0
aF379.0
aF196.0
aF115.0
aF574.0
aF708.0
aF1652.0
aF42.86
aF205.0
aF593.0
aF34.57
aF452.0
aF649.0
aF69.65
aF2073.0
aF66.87
aF345.0
aF757.0
aF1102.0
aF35.55
aF446.0
aF398.0
aF203.0
aF106.0
aF492.0
asI29
(lp11
F969.0
aF2064.0
aF46.95
aF296.0
aF745.0
aF39.73
aF671.0
aF899.0
aF74.64
aF2905.0
aF76.45
aF408.0
aF911.0
aF1319.0
aF34.71
aF536.0
aF484.0
aF197.0
aF98.0
aF707.0
aF940.0
aF2115.0
aF44.44
aF175.0
aF598.0
aF29.26
aF525.0
aF774.0
aF67.83
aF2580.0
aF67.89
aF375.0
aF792.0
aF1167.0
aF30.71
aF496.0
aF476.0
aF225.0
aF129.0
aF753.0
asI30
(lp12
F745.0
aF1724.0
aF43.21
aF167.0
aF506.0
aF33.0
aF531.0
aF750.0
aF70.8
aF2188.0
aF68.38
aF395.0
aF782.0
aF1177.0
aF36.78
aF362.0
aF418.0
aF202.0
aF99.0
aF586.0
aF711.0
aF1696.0
aF41.92
aF185.0
aF532.0
aF34.77
aF459.0
aF670.0
aF68.51
aF2066.0
aF64.56
aF324.0
aF706.0
aF1030.0
aF32.19
aF343.0
aF421.0
aF194.0
aF117.0
aF628.0
asI31
(lp13
F756.0
aF1734.0
aF43.6
aF204.0
aF563.0
aF36.23
aF475.0
aF683.0
aF69.55
aF2191.0
aF70.68
aF332.0
aF731.0
aF1063.0
aF34.29
aF373.0
aF411.0
aF225.0
aF182.0
aF561.0
aF747.0
aF1813.0
aF41.2
aF160.0
aF508.0
aF31.5
aF415.0
aF571.0
aF72.68
aF2069.0
aF66.74
aF404.0
aF749.0
aF1153.0
aF37.19
aF369.0
aF446.0
aF184.0
aF145.0
aF579.0
asI32
(lp14
F825.0
aF1938.0
aF42.57
aF242.0
aF615.0
aF39.35
aF565.0
aF819.0
aF68.99
aF2457.0
aF68.25
aF377.0
aF827.0
aF1204.0
aF33.44
aF433.0
aF428.0
aF212.0
aF89.0
aF740.0
aF811.0
aF1867.0
aF43.44
aF222.0
aF658.0
aF33.74
aF582.0
aF819.0
aF71.06
aF2426.0
aF67.39
aF376.0
aF884.0
aF1260.0
aF35.0
aF452.0
aF497.0
aF159.0
aF130.0
aF736.0
asI37
(lp15
F675.0
aF1695.0
aF39.82
aF148.0
aF465.0
aF31.83
aF435.0
aF663.0
aF65.61
aF1933.0
aF62.35
aF383.0
aF684.0
aF1067.0
aF34.42
aF349.0
aF440.0
aF242.0
aF100.0
aF641.0
aF674.0
aF1583.0
aF42.58
aF220.0
aF654.0
aF33.64
aF483.0
aF714.0
aF67.65
aF2051.0
aF66.16
aF345.0
aF750.0
aF1095.0
aF35.32
aF414.0
aF477.0
aF216.0
aF146.0
aF586.0
asI43
(lp16
F899.0
aF1960.0
aF45.87
aF186.0
aF517.0
aF35.98
aF526.0
aF773.0
aF68.05
aF2510.0
aF73.82
aF429.0
aF798.0
aF1227.0
aF36.09
aF484.0
aF485.0
aF292.0
aF142.0
aF625.0
aF808.0
aF1902.0
aF42.48
aF207.0
aF650.0
aF31.85
aF456.0
aF683.0
aF66.76
aF2279.0
aF67.03
aF411.0
aF775.0
aF1186.0
aF34.88
aF451.0
aF566.0
aF235.0
aF123.0
aF677.0
asI47
(lp17
F724.0
aF1623.0
aF44.61
aF149.0
aF443.0
aF33.63
aF567.0
aF818.0
aF69.32
aF2164.0
aF67.62
aF331.0
aF746.0
aF1077.0
aF33.66
aF436.0
aF414.0
aF193.0
aF64.0
aF574.0
aF740.0
aF1747.0
aF42.36
aF192.0
aF586.0
aF32.76
aF377.0
aF569.0
aF66.26
aF2049.0
aF64.03
aF365.0
aF699.0
aF1064.0
aF33.25
aF404.0
aF443.0
aF187.0
aF112.0
aF682.0
asI48
(lp18
F849.0
aF1898.0
aF44.73
aF208.0
aF573.0
aF36.3
aF456.0
aF604.0
aF75.5
aF2362.0
aF73.81
aF421.0
aF756.0
aF1177.0
aF36.78
aF401.0
aF455.0
aF276.0
aF98.0
aF587.0
aF790.0
aF1763.0
aF44.81
aF183.0
aF554.0
aF33.03
aF434.0
aF645.0
aF67.29
aF2197.0
aF68.66
aF349.0
aF707.0
aF1056.0
aF33.0
aF392.0
aF493.0
aF233.0
aF110.0
aF554.0
asI51
(lp19
F752.0
aF1618.0
aF46.48
aF164.0
aF474.0
aF34.6
aF486.0
aF699.0
aF69.53
aF2154.0
aF69.48
aF360.0
aF728.0
aF1088.0
aF35.1
aF365.0
aF487.0
aF217.0
aF130.0
aF524.0
aF695.0
aF1660.0
aF41.87
aF195.0
aF564.0
aF34.57
aF399.0
aF580.0
aF68.79
aF1984.0
aF64.0
aF329.0
aF624.0
aF953.0
aF30.74
aF374.0
aF459.0
aF250.0
aF77.0
aF602.0
asI61
(lp20
F796.0
aF1814.0
aF43.88
aF140.0
aF443.0
aF31.6
aF509.0
aF719.0
aF70.79
aF2241.0
aF65.91
aF365.0
aF729.0
aF1094.0
aF32.18
aF393.0
aF415.0
aF242.0
aF90.0
aF654.0
aF786.0
aF1708.0
aF46.02
aF180.0
aF521.0
aF34.55
aF488.0
aF750.0
aF65.07
aF2240.0
aF65.88
aF348.0
aF760.0
aF1108.0
aF32.59
aF373.0
aF492.0
aF184.0
aF120.0
aF601.0
asI62
(lp21
F651.0
aF1642.0
aF39.65
aF233.0
aF659.0
aF35.36
aF326.0
aF465.0
aF70.11
aF1861.0
aF60.03
aF316.0
aF643.0
aF959.0
aF30.94
aF339.0
aF384.0
aF157.0
aF102.0
aF503.0
aF775.0
aF1720.0
aF45.06
aF222.0
aF583.0
aF38.08
aF351.0
aF504.0
aF69.64
aF2123.0
aF68.48
aF382.0
aF737.0
aF1119.0
aF36.1
aF404.0
aF342.0
aF172.0
aF103.0
aF468.0
asI66
(lp22
F876.0
aF2002.0
aF43.76
aF237.0
aF688.0
aF34.45
aF605.0
aF838.0
aF72.2
aF2594.0
aF74.11
aF390.0
aF768.0
aF1158.0
aF33.09
aF449.0
aF425.0
aF302.0
aF95.0
aF661.0
aF807.0
aF1760.0
aF45.85
aF220.0
aF582.0
aF37.8
aF548.0
aF769.0
aF71.26
aF2382.0
aF68.06
aF295.0
aF842.0
aF1137.0
aF32.49
aF409.0
aF608.0
aF182.0
aF124.0
aF697.0
asI67
(lp23
F856.0
aF1852.0
aF46.22
aF306.0
aF802.0
aF38.15
aF422.0
aF583.0
aF72.38
aF2440.0
aF71.76
aF319.0
aF772.0
aF1091.0
aF32.09
aF517.0
aF376.0
aF167.0
aF86.0
aF503.0
aF876.0
aF1965.0
aF44.58
aF244.0
aF691.0
aF35.31
aF360.0
aF508.0
aF70.87
aF2356.0
aF69.29
aF383.0
aF733.0
aF1116.0
aF32.82
aF452.0
aF354.0
aF171.0
aF111.0
aF557.0
asI68
(lp24
F749.0
aF1863.0
aF40.2
aF265.0
aF746.0
aF35.52
aF507.0
aF695.0
aF72.95
aF2270.0
aF64.86
aF414.0
aF835.0
aF1249.0
aF35.69
aF345.0
aF418.0
aF189.0
aF129.0
aF635.0
aF783.0
aF1963.0
aF39.89
aF239.0
aF737.0
aF32.43
aF417.0
aF592.0
aF70.44
aF2222.0
aF63.49
aF436.0
aF800.0
aF1236.0
aF35.31
aF422.0
aF397.0
aF173.0
aF122.0
aF643.0
asI71
(lp25
F803.0
aF1859.0
aF43.2
aF146.0
aF491.0
aF29.74
aF364.0
aF567.0
aF64.2
aF2116.0
aF64.12
aF361.0
aF738.0
aF1099.0
aF33.3
aF452.0
aF444.0
aF283.0
aF105.0
aF608.0
aF772.0
aF1743.0
aF44.29
aF228.0
aF648.0
aF35.19
aF443.0
aF662.0
aF66.92
aF2215.0
aF67.12
aF365.0
aF819.0
aF1184.0
aF35.88
aF510.0
aF508.0
aF225.0
aF103.0
aF519.0
asI72
(lp26
F748.0
aF1751.0
aF42.72
aF159.0
aF476.0
aF33.4
aF421.0
aF583.0
aF72.21
aF2076.0
aF64.88
aF294.0
aF754.0
aF1048.0
aF32.75
aF374.0
aF390.0
aF202.0
aF79.0
aF584.0
aF742.0
aF1716.0
aF43.24
aF218.0
aF651.0
aF33.49
aF462.0
aF640.0
aF72.19
aF2164.0
aF67.62
aF321.0
aF802.0
aF1123.0
aF35.09
aF481.0
aF414.0
aF177.0
aF94.0
aF574.0
asI77
(lp27
F1019.0
aF2267.0
aF44.95
aF312.0
aF865.0
aF36.07
aF662.0
aF865.0
aF76.53
aF3012.0
aF81.41
aF420.0
aF1005.0
aF1425.0
aF38.51
aF538.0
aF404.0
aF298.0
aF150.0
aF647.0
aF902.0
aF2174.0
aF41.49
aF218.0
aF666.0
aF32.73
aF490.0
aF711.0
aF68.92
aF2512.0
aF67.89
aF395.0
aF925.0
aF1320.0
aF35.68
aF464.0
aF533.0
aF215.0
aF124.0
aF718.0
asI80
(lp28
F688.0
aF1567.0
aF43.91
aF209.0
aF610.0
aF34.26
aF417.0
aF558.0
aF74.73
aF2002.0
aF71.5
aF221.0
aF738.0
aF959.0
aF34.25
aF399.0
aF343.0
aF147.0
aF76.0
aF464.0
aF755.0
aF1690.0
aF44.67
aF188.0
aF542.0
aF34.69
aF356.0
aF513.0
aF69.4
aF2054.0
aF73.36
aF289.0
aF729.0
aF1018.0
aF36.36
aF383.0
aF306.0
aF181.0
aF101.0
aF514.0
asI81
(lp29
F704.0
aF1683.0
aF41.83
aF243.0
aF673.0
aF36.11
aF350.0
aF537.0
aF65.18
aF2001.0
aF66.7
aF315.0
aF675.0
aF990.0
aF33.0
aF400.0
aF409.0
aF167.0
aF82.0
aF565.0
aF788.0
aF1713.0
aF46.0
aF250.0
aF641.0
aF39.0
aF432.0
aF611.0
aF70.7
aF2258.0
aF75.27
aF353.0
aF764.0
aF1117.0
aF37.23
aF489.0
aF374.0
aF201.0
aF95.0
aF509.0
asI83
(lp30
F827.0
aF1855.0
aF44.58
aF234.0
aF585.0
aF40.0
aF499.0
aF633.0
aF78.83
aF2387.0
aF70.21
aF270.0
aF879.0
aF1149.0
aF33.79
aF492.0
aF380.0
aF160.0
aF106.0
aF612.0
aF747.0
aF1888.0
aF39.57
aF219.0
aF691.0
aF31.69
aF461.0
aF661.0
aF69.74
aF2174.0
aF63.94
aF359.0
aF803.0
aF1162.0
aF34.18
aF422.0
aF400.0
aF186.0
aF89.0
aF594.0
asI86
(lp31
F879.0
aF1864.0
aF47.16
aF206.0
aF549.0
aF37.52
aF435.0
aF668.0
aF65.12
aF2399.0
aF70.56
aF408.0
aF797.0
aF1205.0
aF35.44
aF478.0
aF524.0
aF269.0
aF183.0
aF645.0
aF768.0
aF1843.0
aF41.67
aF204.0
aF561.0
aF36.36
aF457.0
aF685.0
aF66.72
aF2197.0
aF64.62
aF397.0
aF693.0
aF1090.0
aF32.06
aF448.0
aF518.0
aF248.0
aF79.0
aF623.0
asI87
(lp32
F919.0
aF2122.0
aF43.31
aF289.0
aF822.0
aF35.16
aF580.0
aF799.0
aF72.59
aF2707.0
aF71.24
aF431.0
aF906.0
aF1337.0
aF35.18
aF452.0
aF416.0
aF226.0
aF61.0
aF718.0
aF845.0
aF1994.0
aF42.38
aF229.0
aF707.0
aF32.39
aF518.0
aF771.0
aF67.19
aF2437.0
aF64.13
aF351.0
aF869.0
aF1220.0
aF32.11
aF409.0
aF474.0
aF201.0
aF112.0
aF747.0
asI90
(lp33
F603.0
aF1551.0
aF38.88
aF190.0
aF610.0
aF31.15
aF383.0
aF577.0
aF66.38
aF1779.0
aF59.3
aF343.0
aF677.0
aF1020.0
aF34.0
aF336.0
aF356.0
aF181.0
aF62.0
aF557.0
aF591.0
aF1479.0
aF39.96
aF146.0
aF508.0
aF28.74
aF438.0
aF619.0
aF70.76
aF1766.0
aF58.87
aF313.0
aF706.0
aF1019.0
aF33.97
aF320.0
aF405.0
aF175.0
aF128.0
aF530.0
asI94
(lp34
F657.0
aF1661.0
aF39.55
aF181.0
aF546.0
aF33.15
aF412.0
aF598.0
aF68.9
aF1907.0
aF68.11
aF355.0
aF592.0
aF947.0
aF33.82
aF329.0
aF382.0
aF204.0
aF89.0
aF535.0
aF773.0
aF1605.0
aF48.16
aF155.0
aF448.0
aF34.6
aF465.0
aF635.0
aF73.23
aF2166.0
aF77.36
aF331.0
aF760.0
aF1091.0
aF38.96
aF414.0
aF390.0
aF177.0
aF75.0
aF502.0
asI96
(lp35
F743.0
aF1740.0
aF42.7
aF183.0
aF621.0
aF29.47
aF427.0
aF679.0
aF62.89
aF2096.0
aF67.61
aF375.0
aF742.0
aF1117.0
aF36.03
aF441.0
aF430.0
aF264.0
aF115.0
aF566.0
aF727.0
aF1678.0
aF43.33
aF193.0
aF547.0
aF35.28
aF442.0
aF653.0
aF67.69
aF2089.0
aF67.39
aF331.0
aF750.0
aF1081.0
aF34.87
aF398.0
aF431.0
aF201.0
aF92.0
aF561.0
asI97
(lp36
F752.0
aF1674.0
aF44.92
aF198.0
aF540.0
aF36.67
aF506.0
aF704.0
aF71.88
aF2208.0
aF71.23
aF325.0
aF711.0
aF1036.0
aF33.42
aF393.0
aF439.0
aF162.0
aF44.0
aF636.0
aF767.0
aF1712.0
aF44.8
aF252.0
aF681.0
aF37.0
aF540.0
aF744.0
aF72.58
aF2326.0
aF75.03
aF341.0
aF711.0
aF1052.0
aF33.94
aF446.0
aF409.0
aF171.0
aF109.0
aF580.0
asI99
(lp37
F862.0
aF1934.0
aF44.57
aF219.0
aF637.0
aF34.38
aF546.0
aF812.0
aF67.24
aF2489.0
aF73.21
aF407.0
aF849.0
aF1256.0
aF36.94
aF455.0
aF488.0
aF205.0
aF72.0
aF550.0
aF892.0
aF1994.0
aF44.73
aF216.0
aF655.0
aF32.98
aF398.0
aF587.0
aF67.8
aF2398.0
aF70.53
aF344.0
aF812.0
aF1156.0
aF34.0
aF451.0
aF459.0
aF230.0
aF103.0
aF666.0
asI101
(lp38
F752.0
aF1725.0
aF43.59
aF176.0
aF542.0
aF32.47
aF552.0
aF820.0
aF67.32
aF2232.0
aF69.75
aF365.0
aF746.0
aF1111.0
aF34.72
aF407.0
aF504.0
aF209.0
aF111.0
aF738.0
aF717.0
aF1663.0
aF43.11
aF204.0
aF612.0
aF33.33
aF642.0
aF927.0
aF69.26
aF2280.0
aF71.25
aF357.0
aF742.0
aF1099.0
aF34.34
aF425.0
aF481.0
aF228.0
aF88.0
aF685.0
asI102
(lp39
F593.0
aF1479.0
aF40.09
aF155.0
aF507.0
aF30.57
aF388.0
aF570.0
aF68.07
aF1729.0
aF61.75
aF327.0
aF666.0
aF993.0
aF35.46
aF344.0
aF412.0
aF172.0
aF96.0
aF510.0
aF688.0
aF1562.0
aF44.05
aF198.0
aF556.0
aF35.61
aF374.0
aF560.0
aF66.79
aF1948.0
aF69.57
aF316.0
aF653.0
aF969.0
aF34.61
aF383.0
aF332.0
aF196.0
aF119.0
aF512.0
asI104
(lp40
F742.0
aF1636.0
aF45.35
aF227.0
aF611.0
aF37.15
aF459.0
aF610.0
aF75.25
aF2170.0
aF67.81
aF277.0
aF761.0
aF1038.0
aF32.44
aF457.0
aF456.0
aF233.0
aF133.0
aF611.0
aF696.0
aF1712.0
aF40.65
aF227.0
aF625.0
aF36.32
aF486.0
aF693.0
aF70.13
aF2105.0
aF65.78
aF356.0
aF700.0
aF1056.0
aF33.0
aF413.0
aF429.0
aF196.0
aF67.0
aF557.0
asI107
(lp41
F820.0
aF1779.0
aF46.09
aF169.0
aF481.0
aF35.14
aF582.0
aF838.0
aF69.45
aF2391.0
aF72.45
aF325.0
aF828.0
aF1153.0
aF34.94
aF493.0
aF449.0
aF188.0
aF84.0
aF588.0
aF836.0
aF1919.0
aF43.56
aF263.0
aF723.0
aF36.38
aF447.0
aF648.0
aF68.98
aF2382.0
aF72.18
aF340.0
aF743.0
aF1083.0
aF32.82
aF429.0
aF418.0
aF186.0
aF94.0
aF720.0
asI108
(lp42
F744.0
aF1619.0
aF45.95
aF241.0
aF637.0
aF37.83
aF407.0
aF559.0
aF72.81
aF2136.0
aF71.2
aF225.0
aF695.0
aF920.0
aF30.67
aF450.0
aF422.0
aF196.0
aF77.0
aF589.0
aF786.0
aF1710.0
aF45.96
aF176.0
aF506.0
aF34.78
aF446.0
aF687.0
aF64.92
aF2194.0
aF73.13
aF359.0
aF723.0
aF1082.0
aF36.07
aF405.0
aF412.0
aF213.0
aF61.0
aF545.0
asI109
(lp43
F798.0
aF1892.0
aF42.18
aF239.0
aF675.0
aF35.41
aF576.0
aF784.0
aF73.47
aF2411.0
aF75.34
aF309.0
aF839.0
aF1148.0
aF35.88
aF390.0
aF412.0
aF213.0
aF57.0
aF691.0
aF818.0
aF1892.0
aF43.23
aF237.0
aF717.0
aF33.05
aF546.0
aF762.0
aF71.65
aF2419.0
aF75.59
aF367.0
aF885.0
aF1252.0
aF39.12
aF437.0
aF464.0
aF150.0
aF90.0
aF640.0
asI110
(lp44
F830.0
aF1823.0
aF45.53
aF173.0
aF530.0
aF32.64
aF549.0
aF808.0
aF67.95
aF2382.0
aF70.06
aF405.0
aF860.0
aF1265.0
aF37.21
aF493.0
aF501.0
aF185.0
aF198.0
aF594.0
aF821.0
aF1964.0
aF41.8
aF176.0
aF506.0
aF34.78
aF436.0
aF648.0
aF67.28
aF2254.0
aF66.29
aF396.0
aF718.0
aF1114.0
aF32.76
aF401.0
aF410.0
aF236.0
aF98.0
aF654.0
asI111
(lp45
F745.0
aF1756.0
aF42.43
aF161.0
aF464.0
aF34.7
aF393.0
aF576.0
aF68.23
aF2044.0
aF65.94
aF370.0
aF717.0
aF1087.0
aF35.06
aF374.0
aF432.0
aF183.0
aF119.0
aF581.0
aF718.0
aF1680.0
aF42.74
aF259.0
aF687.0
aF37.7
aF469.0
aF660.0
aF71.06
aF2164.0
aF69.81
aF330.0
aF743.0
aF1073.0
aF34.61
aF408.0
aF424.0
aF169.0
aF79.0
aF559.0
asI115
(lp46
F742.0
aF1640.0
aF45.24
aF123.0
aF351.0
aF35.04
aF425.0
aF663.0
aF64.1
aF2032.0
aF65.55
aF353.0
aF670.0
aF1023.0
aF33.0
aF425.0
aF446.0
aF219.0
aF155.0
aF680.0
aF668.0
aF1567.0
aF42.63
aF209.0
aF555.0
aF37.66
aF546.0
aF782.0
aF69.82
aF2091.0
aF67.45
aF355.0
aF671.0
aF1026.0
aF33.1
aF423.0
aF454.0
aF197.0
aF137.0
aF586.0
asI116
(lp47
F739.0
aF1742.0
aF42.42
aF231.0
aF662.0
aF34.89
aF334.0
aF478.0
aF69.87
aF2043.0
aF68.1
aF364.0
aF699.0
aF1063.0
aF35.43
aF449.0
aF414.0
aF207.0
aF145.0
aF580.0
aF693.0
aF1681.0
aF41.23
aF180.0
aF530.0
aF33.96
aF458.0
aF662.0
aF69.18
aF2024.0
aF67.47
aF388.0
aF705.0
aF1093.0
aF36.43
aF396.0
aF408.0
aF193.0
aF94.0
aF499.0
asI125
(lp48
F598.0
aF1509.0
aF39.63
aF131.0
aF436.0
aF30.05
aF448.0
aF715.0
aF62.66
aF1775.0
aF59.17
aF282.0
aF610.0
aF892.0
aF29.73
aF294.0
aF548.0
aF212.0
aF73.0
aF658.0
aF835.0
aF1699.0
aF49.15
aF204.0
aF580.0
aF35.17
aF548.0
aF813.0
aF67.4
aF2422.0
aF80.73
aF385.0
aF776.0
aF1161.0
aF38.7
aF476.0
aF440.0
aF289.0
aF130.0
aF617.0
asI127
(lp49
F766.0
aF1758.0
aF43.57
aF152.0
aF464.0
aF32.76
aF486.0
aF634.0
aF76.66
aF2170.0
aF70.0
aF393.0
aF730.0
aF1123.0
aF36.23
aF452.0
aF447.0
aF233.0
aF121.0
aF548.0
aF733.0
aF1751.0
aF41.86
aF182.0
aF568.0
aF32.04
aF397.0
aF584.0
aF67.98
aF2045.0
aF65.97
aF394.0
aF682.0
aF1076.0
aF34.71
aF360.0
aF496.0
aF192.0
aF96.0
aF580.0
asI128
(lp50
F767.0
aF1690.0
aF45.38
aF195.0
aF582.0
aF33.51
aF542.0
aF785.0
aF69.04
aF2271.0
aF68.82
aF358.0
aF795.0
aF1153.0
aF34.94
aF405.0
aF454.0
aF200.0
aF190.0
aF575.0
aF751.0
aF1832.0
aF40.99
aF190.0
aF538.0
aF35.32
aF388.0
aF592.0
aF65.54
aF2080.0
aF63.03
aF388.0
aF691.0
aF1079.0
aF32.7
aF405.0
aF427.0
aF227.0
aF105.0
aF664.0
asI129
(lp51
F661.0
aF1720.0
aF38.43
aF156.0
aF479.0
aF32.57
aF363.0
aF577.0
aF62.91
aF1841.0
aF59.39
aF374.0
aF652.0
aF1026.0
aF33.1
aF271.0
aF419.0
aF223.0
aF112.0
aF665.0
aF675.0
aF1480.0
aF45.61
aF138.0
aF380.0
aF36.32
aF518.0
aF778.0
aF66.58
aF2006.0
aF64.71
aF281.0
aF782.0
aF1063.0
aF34.29
aF337.0
aF460.0
aF182.0
aF124.0
aF547.0
asI136
(lp52
F759.0
aF1893.0
aF40.1
aF145.0
aF491.0
aF29.53
aF465.0
aF719.0
aF64.67
aF2128.0
aF66.5
aF362.0
aF775.0
aF1137.0
aF35.53
aF392.0
aF550.0
aF206.0
aF81.0
aF764.0
aF928.0
aF1963.0
aF47.27
aF277.0
aF738.0
aF37.53
aF639.0
aF943.0
aF67.76
aF2772.0
aF86.62
aF420.0
aF916.0
aF1336.0
aF41.75
aF593.0
aF444.0
aF250.0
aF122.0
aF621.0
asI140
(lp53
F848.0
aF1939.0
aF43.73
aF220.0
aF651.0
aF33.79
aF496.0
aF742.0
aF66.85
aF2412.0
aF68.91
aF454.0
aF783.0
aF1237.0
aF35.34
aF497.0
aF401.0
aF258.0
aF129.0
aF605.0
aF735.0
aF1790.0
aF41.06
aF171.0
aF529.0
aF32.33
aF445.0
aF633.0
aF70.3
aF2086.0
aF59.6
aF352.0
aF736.0
aF1088.0
aF31.09
aF405.0
aF492.0
aF205.0
aF100.0
aF630.0
asI141
(lp54
F752.0
aF1758.0
aF42.78
aF157.0
aF488.0
aF32.17
aF388.0
aF542.0
aF71.59
aF2049.0
aF64.03
aF361.0
aF759.0
aF1120.0
aF35.0
aF402.0
aF407.0
aF151.0
aF47.0
aF529.0
aF821.0
aF1772.0
aF46.33
aF215.0
aF633.0
aF33.97
aF380.0
aF556.0
aF68.35
aF2237.0
aF69.91
aF300.0
aF734.0
aF1034.0
aF32.31
aF436.0
aF339.0
aF194.0
aF108.0
aF513.0
asI147
(lp55
F810.0
aF1827.0
aF44.33
aF217.0
aF630.0
aF34.44
aF493.0
aF703.0
aF70.13
aF2330.0
aF68.53
aF384.0
aF793.0
aF1177.0
aF34.62
aF445.0
aF449.0
aF272.0
aF161.0
aF624.0
aF724.0
aF1801.0
aF40.2
aF193.0
aF583.0
aF33.1
aF445.0
aF627.0
aF70.97
aF2086.0
aF61.35
aF382.0
aF740.0
aF1122.0
aF33.0
aF382.0
aF517.0
aF226.0
aF105.0
aF641.0
asI148
(lp56
F859.0
aF1980.0
aF43.38
aF237.0
aF695.0
aF34.1
aF601.0
aF822.0
aF73.11
aF2556.0
aF71.0
aF383.0
aF831.0
aF1214.0
aF33.72
aF427.0
aF412.0
aF269.0
aF97.0
aF718.0
aF786.0
aF1900.0
aF41.37
aF190.0
aF587.0
aF32.37
aF529.0
aF778.0
aF67.99
aF2291.0
aF63.64
aF411.0
aF846.0
aF1257.0
aF34.92
aF456.0
aF530.0
aF194.0
aF145.0
aF680.0
asI149
(lp57
F930.0
aF1915.0
aF48.56
aF161.0
aF484.0
aF33.26
aF576.0
aF832.0
aF69.23
aF2597.0
aF76.38
aF413.0
aF926.0
aF1339.0
aF39.38
aF521.0
aF443.0
aF227.0
aF153.0
aF517.0
aF796.0
aF2011.0
aF39.58
aF242.0
aF705.0
aF34.33
aF344.0
aF517.0
aF66.54
aF2178.0
aF64.06
aF383.0
aF716.0
aF1099.0
aF32.32
aF362.0
aF458.0
aF206.0
aF114.0
aF685.0
asI153
(lp58
F683.0
aF1631.0
aF41.88
aF164.0
aF490.0
aF33.47
aF417.0
aF611.0
aF68.25
aF1947.0
aF64.9
aF328.0
aF695.0
aF1023.0
aF34.1
aF379.0
aF475.0
aF173.0
aF91.0
aF617.0
aF763.0
aF1669.0
aF45.72
aF190.0
aF562.0
aF33.81
aF554.0
aF746.0
aF74.26
aF2270.0
aF75.67
aF309.0
aF712.0
aF1021.0
aF34.03
aF430.0
aF348.0
aF231.0
aF107.0
aF549.0
asI156
(lp59
F798.0
aF1707.0
aF46.75
aF187.0
aF561.0
aF33.33
aF496.0
aF717.0
aF69.18
aF2279.0
aF71.22
aF332.0
aF761.0
aF1093.0
aF34.16
aF424.0
aF450.0
aF232.0
aF82.0
aF607.0
aF750.0
aF1747.0
aF42.93
aF201.0
aF602.0
aF33.39
aF465.0
aF662.0
aF70.24
aF2166.0
aF67.69
aF336.0
aF708.0
aF1044.0
aF32.62
aF384.0
aF444.0
aF201.0
aF109.0
aF618.0
asI157
(lp60
F1058.0
aF2237.0
aF47.3
aF230.0
aF618.0
aF37.22
aF679.0
aF873.0
aF77.78
aF3025.0
aF79.61
aF447.0
aF920.0
aF1367.0
aF35.97
aF524.0
aF446.0
aF258.0
aF111.0
aF697.0
aF990.0
aF2212.0
aF44.76
aF253.0
aF696.0
aF36.35
aF554.0
aF785.0
aF70.57
aF2787.0
aF73.34
aF440.0
aF821.0
aF1261.0
aF33.18
aF535.0
aF512.0
aF236.0
aF125.0
aF744.0
asI158
(lp61
F702.0
aF1643.0
aF42.73
aF158.0
aF468.0
aF33.76
aF420.0
aF588.0
aF71.43
aF1982.0
aF70.79
aF353.0
aF673.0
aF1026.0
aF36.64
aF324.0
aF348.0
aF180.0
aF84.0
aF536.0
aF704.0
aF1540.0
aF45.71
aF148.0
aF406.0
aF36.45
aF432.0
aF596.0
aF72.48
aF1988.0
aF71.0
aF248.0
aF679.0
aF927.0
aF33.11
aF365.0
aF357.0
aF172.0
aF91.0
aF493.0
asI164
(lp62
F1053.0
aF2429.0
aF43.35
aF234.0
aF711.0
aF32.91
aF627.0
aF822.0
aF76.28
aF2967.0
aF72.37
aF570.0
aF1056.0
aF1626.0
aF39.66
aF534.0
aF466.0
aF259.0
aF228.0
aF646.0
aF973.0
aF2478.0
aF39.27
aF261.0
aF798.0
aF32.71
aF452.0
aF665.0
aF67.97
aF2659.0
aF64.85
aF546.0
aF901.0
aF1447.0
aF35.29
aF501.0
aF472.0
aF250.0
aF143.0
aF742.0
asI165
(lp63
F760.0
aF1770.0
aF42.94
aF232.0
aF639.0
aF36.31
aF423.0
aF603.0
aF70.15
aF2175.0
aF72.5
aF343.0
aF741.0
aF1084.0
aF36.13
aF344.0
aF410.0
aF219.0
aF68.0
aF540.0
aF756.0
aF1772.0
aF42.66
aF229.0
aF686.0
aF33.38
aF428.0
aF629.0
aF68.04
aF2169.0
aF72.3
aF384.0
aF755.0
aF1139.0
aF37.97
aF421.0
aF445.0
aF188.0
aF118.0
aF544.0
asI167
(lp64
F658.0
aF1580.0
aF41.65
aF251.0
aF671.0
aF37.41
aF339.0
aF492.0
aF68.9
aF1906.0
aF68.07
aF301.0
aF605.0
aF906.0
aF32.36
aF406.0
aF338.0
aF186.0
aF70.0
aF578.0
aF665.0
aF1459.0
aF45.58
aF166.0
aF484.0
aF34.3
aF466.0
aF645.0
aF72.25
aF1962.0
aF70.07
aF285.0
aF718.0
aF1003.0
aF35.82
aF385.0
aF384.0
aF154.0
aF105.0
aF482.0
asI169
(lp65
F935.0
aF2034.0
aF45.97
aF280.0
aF759.0
aF36.89
aF534.0
aF732.0
aF72.95
aF2684.0
aF68.82
aF372.0
aF978.0
aF1350.0
aF34.62
aF568.0
aF470.0
aF167.0
aF122.0
aF592.0
aF958.0
aF2209.0
aF43.37
aF239.0
aF691.0
aF34.59
aF394.0
aF581.0
aF67.81
aF2549.0
aF65.36
aF371.0
aF827.0
aF1198.0
aF30.72
aF490.0
aF373.0
aF242.0
aF111.0
aF697.0
asI10411
(lp66
F625.0
aF1680.0
aF37.2
aF214.0
aF735.0
aF29.12
aF282.0
aF470.0
aF60.0
aF1746.0
aF58.2
aF378.0
aF642.0
aF1020.0
aF34.0
aF341.0
aF440.0
aF174.0
aF110.0
aF554.0
aF745.0
aF1605.0
aF46.42
aF182.0
aF525.0
aF34.67
aF419.0
aF626.0
aF66.93
aF2091.0
aF69.7
aF339.0
aF777.0
aF1116.0
aF37.2
aF418.0
aF395.0
aF217.0
aF99.0
aF487.0
asI172
(lp67
F605.0
aF1531.0
aF39.52
aF142.0
aF435.0
aF32.64
aF315.0
aF452.0
aF69.69
aF1667.0
aF59.54
aF267.0
aF593.0
aF860.0
aF30.71
aF257.0
aF383.0
aF180.0
aF72.0
aF530.0
aF689.0
aF1530.0
aF45.03
aF217.0
aF587.0
aF36.97
aF393.0
aF559.0
aF70.3
aF1988.0
aF71.0
aF326.0
aF737.0
aF1063.0
aF37.96
aF385.0
aF395.0
aF192.0
aF116.0
aF478.0
asI173
(lp68
F819.0
aF1886.0
aF43.43
aF258.0
aF750.0
aF34.4
aF496.0
aF677.0
aF73.26
aF2392.0
aF72.48
aF419.0
aF795.0
aF1214.0
aF36.79
aF425.0
aF465.0
aF162.0
aF98.0
aF729.0
aF753.0
aF1740.0
aF43.28
aF161.0
aF482.0
aF33.4
aF599.0
aF850.0
aF70.47
aF2266.0
aF68.67
aF324.0
aF750.0
aF1074.0
aF32.55
aF340.0
aF427.0
aF201.0
aF123.0
aF659.0
asI175
(lp69
F851.0
aF2078.0
aF40.95
aF243.0
aF684.0
aF35.53
aF468.0
aF691.0
aF67.73
aF2413.0
aF67.03
aF478.0
aF914.0
aF1392.0
aF38.67
aF525.0
aF477.0
aF171.0
aF105.0
aF699.0
aF806.0
aF1946.0
aF41.42
aF237.0
aF733.0
aF32.33
aF504.0
aF747.0
aF67.47
aF2353.0
aF65.36
aF360.0
aF860.0
aF1220.0
aF33.89
aF457.0
aF450.0
aF176.0
aF131.0
aF638.0
asI176
(lp70
F766.0
aF1800.0
aF42.56
aF163.0
aF519.0
aF31.41
aF409.0
aF599.0
aF68.28
aF2104.0
aF67.87
aF340.0
aF604.0
aF944.0
aF30.45
aF446.0
aF420.0
aF231.0
aF103.0
aF617.0
aF873.0
aF1743.0
aF50.09
aF141.0
aF403.0
aF34.99
aF491.0
aF686.0
aF71.57
aF2378.0
aF76.71
aF386.0
aF797.0
aF1183.0
aF38.16
aF498.0
aF477.0
aF199.0
aF129.0
aF529.0
asI178
(lp71
F674.0
aF1576.0
aF42.77
aF206.0
aF594.0
aF34.68
aF320.0
aF448.0
aF71.43
aF1874.0
aF62.47
aF269.0
aF490.0
aF759.0
aF25.3
aF347.0
aF335.0
aF253.0
aF109.0
aF464.0
aF735.0
aF1494.0
aF49.2
aF145.0
aF400.0
aF36.25
aF352.0
aF524.0
aF67.18
aF1967.0
aF65.57
aF355.0
aF694.0
aF1049.0
aF34.97
aF395.0
aF464.0
aF147.0
aF87.0
aF443.0
asI180
(lp72
F663.0
aF1593.0
aF41.62
aF182.0
aF523.0
aF34.8
aF443.0
aF641.0
aF69.11
aF1951.0
aF62.94
aF290.0
aF734.0
aF1024.0
aF33.03
aF323.0
aF365.0
aF115.0
aF125.0
aF615.0
aF711.0
aF1684.0
aF42.22
aF144.0
aF468.0
aF30.77
aF499.0
aF701.0
aF71.18
aF2065.0
aF66.61
aF351.0
aF741.0
aF1092.0
aF35.23
aF335.0
aF294.0
aF179.0
aF90.0
aF569.0
asI183
(lp73
F601.0
aF1324.0
aF45.39
aF232.0
aF578.0
aF40.14
aF366.0
aF505.0
aF72.48
aF1800.0
aF60.0
aF158.0
aF560.0
aF718.0
aF23.93
aF397.0
aF371.0
aF166.0
aF106.0
aF653.0
aF577.0
aF1264.0
aF45.65
aF119.0
aF291.0
aF40.89
aF544.0
aF787.0
aF69.12
aF1817.0
aF60.57
aF259.0
aF631.0
aF890.0
aF29.67
aF231.0
aF418.0
aF161.0
aF87.0
aF551.0
asI184
(lp74
F849.0
aF1832.0
aF46.34
aF168.0
aF477.0
aF35.22
aF593.0
aF863.0
aF68.71
aF2459.0
aF74.52
aF400.0
aF837.0
aF1237.0
aF37.48
aF405.0
aF517.0
aF251.0
aF165.0
aF640.0
aF856.0
aF2006.0
aF42.67
aF242.0
aF726.0
aF33.33
aF443.0
aF652.0
aF67.94
aF2397.0
aF72.64
aF424.0
aF700.0
aF1124.0
aF34.06
aF445.0
aF471.0
aF256.0
aF123.0
aF693.0
asI189
(lp75
F687.0
aF1608.0
aF42.72
aF203.0
aF573.0
aF35.43
aF420.0
aF613.0
aF68.52
aF1997.0
aF64.42
aF247.0
aF684.0
aF931.0
aF30.03
aF359.0
aF377.0
aF175.0
aF87.0
aF568.0
aF748.0
aF1664.0
aF44.95
aF172.0
aF525.0
aF32.76
aF432.0
aF602.0
aF71.76
aF2100.0
aF67.74
aF315.0
aF788.0
aF1103.0
aF35.58
aF391.0
aF409.0
aF202.0
aF74.0
aF576.0
asI191
(lp76
F719.0
aF1696.0
aF42.39
aF117.0
aF378.0
aF30.95
aF420.0
aF682.0
aF61.58
aF1975.0
aF63.71
aF423.0
aF826.0
aF1249.0
aF40.29
aF348.0
aF370.0
aF127.0
aF85.0
aF583.0
aF652.0
aF1630.0
aF40.0
aF125.0
aF438.0
aF28.54
aF421.0
aF613.0
aF68.68
aF1850.0
aF59.68
aF255.0
aF701.0
aF956.0
aF30.84
aF295.0
aF311.0
aF165.0
aF158.0
aF578.0
asI193
(lp77
F1040.0
aF2206.0
aF47.14
aF291.0
aF778.0
aF37.4
aF622.0
aF826.0
aF75.3
aF2993.0
aF80.89
aF446.0
aF953.0
aF1399.0
aF37.81
aF529.0
aF447.0
aF269.0
aF162.0
aF657.0
aF896.0
aF2212.0
aF40.51
aF176.0
aF543.0
aF32.41
aF426.0
aF655.0
aF65.04
aF2394.0
aF64.7
aF473.0
aF826.0
aF1299.0
aF35.11
aF438.0
aF546.0
aF219.0
aF105.0
aF745.0
asI194
(lp78
F872.0
aF1905.0
aF45.77
aF256.0
aF712.0
aF35.96
aF494.0
aF794.0
aF62.22
aF2494.0
aF77.94
aF405.0
aF723.0
aF1128.0
aF35.25
aF571.0
aF428.0
aF317.0
aF170.0
aF616.0
aF759.0
aF1781.0
aF42.62
aF195.0
aF581.0
aF33.56
aF464.0
aF686.0
aF67.64
aF2177.0
aF68.03
aF437.0
aF783.0
aF1220.0
aF38.12
aF409.0
aF643.0
aF185.0
aF121.0
aF686.0
asI196
(lp79
F735.0
aF1728.0
aF42.53
aF258.0
aF721.0
aF35.78
aF591.0
aF854.0
aF69.2
aF2319.0
aF68.21
aF358.0
aF781.0
aF1139.0
aF33.5
aF440.0
aF478.0
aF221.0
aF95.0
aF666.0
aF799.0
aF1863.0
aF42.89
aF209.0
aF630.0
aF33.17
aF481.0
aF722.0
aF66.62
aF2288.0
aF67.29
aF419.0
aF789.0
aF1208.0
aF35.53
aF440.0
aF466.0
aF215.0
aF122.0
aF706.0
asI198
(lp80
F873.0
aF1924.0
aF45.37
aF189.0
aF540.0
aF35.0
aF580.0
aF856.0
aF67.76
aF2515.0
aF69.86
aF406.0
aF882.0
aF1288.0
aF35.78
aF390.0
aF477.0
aF243.0
aF137.0
aF663.0
aF803.0
aF1983.0
aF40.49
aF259.0
aF765.0
aF33.86
aF455.0
aF686.0
aF66.33
aF2320.0
aF64.44
aF429.0
aF791.0
aF1220.0
aF33.89
aF429.0
aF501.0
aF201.0
aF126.0
aF741.0
asI201
(lp81
F640.0
aF1519.0
aF42.13
aF117.0
aF363.0
aF32.23
aF352.0
aF486.0
aF72.43
aF1749.0
aF60.31
aF309.0
aF677.0
aF986.0
aF34.0
aF366.0
aF405.0
aF173.0
aF72.0
aF550.0
aF635.0
aF1514.0
aF41.94
aF200.0
aF563.0
aF35.52
aF405.0
aF587.0
aF68.99
aF1875.0
aF64.66
aF293.0
aF645.0
aF938.0
aF32.34
aF391.0
aF365.0
aF188.0
aF83.0
aF482.0
asI202
(lp82
F707.0
aF1584.0
aF44.63
aF247.0
aF671.0
aF36.81
aF385.0
aF519.0
aF74.18
aF2046.0
aF66.0
aF254.0
aF635.0
aF889.0
aF28.68
aF436.0
aF374.0
aF187.0
aF85.0
aF561.0
aF681.0
aF1522.0
aF44.74
aF172.0
aF475.0
aF36.21
aF423.0
aF619.0
aF68.34
aF1957.0
aF63.13
aF304.0
aF693.0
aF997.0
aF32.16
aF389.0
aF434.0
aF165.0
aF96.0
aF526.0
asI204
(lp83
F659.0
aF1696.0
aF38.86
aF214.0
aF664.0
aF32.23
aF374.0
aF599.0
aF62.44
aF1906.0
aF61.48
aF332.0
aF754.0
aF1086.0
aF35.03
aF404.0
aF449.0
aF203.0
aF115.0
aF607.0
aF697.0
aF1635.0
aF42.63
aF159.0
aF466.0
aF34.12
aF477.0
aF690.0
aF69.13
aF2030.0
aF65.48
aF299.0
aF823.0
aF1122.0
aF36.19
aF387.0
aF426.0
aF218.0
aF88.0
aF551.0
asI207
(lp84
F688.0
aF1685.0
aF40.83
aF242.0
aF656.0
aF36.89
aF405.0
aF611.0
aF66.28
aF2023.0
aF67.43
aF370.0
aF662.0
aF1032.0
aF34.4
aF356.0
aF412.0
aF174.0
aF120.0
aF612.0
aF704.0
aF1607.0
aF43.81
aF169.0
aF488.0
aF34.63
aF542.0
aF742.0
aF73.05
aF2119.0
aF70.63
aF341.0
aF719.0
aF1060.0
aF35.33
aF403.0
aF391.0
aF212.0
aF117.0
aF562.0
asI219
(lp85
F723.0
aF1606.0
aF45.02
aF147.0
aF412.0
aF35.68
aF529.0
aF746.0
aF70.91
aF2122.0
aF66.31
aF255.0
aF704.0
aF959.0
aF29.97
aF452.0
aF415.0
aF177.0
aF59.0
aF668.0
aF730.0
aF1614.0
aF45.23
aF201.0
aF575.0
aF34.96
aF486.0
aF696.0
aF69.83
aF2147.0
aF67.09
aF294.0
aF749.0
aF1043.0
aF32.59
aF419.0
aF474.0
aF188.0
aF125.0
aF697.0
asI220
(lp86
F777.0
aF1795.0
aF43.29
aF139.0
aF463.0
aF30.02
aF457.0
aF699.0
aF65.38
aF2150.0
aF65.15
aF399.0
aF796.0
aF1195.0
aF36.21
aF452.0
aF457.0
aF271.0
aF118.0
aF577.0
aF703.0
aF1756.0
aF40.03
aF162.0
aF507.0
aF31.95
aF356.0
aF553.0
aF64.38
aF1924.0
aF58.3
aF370.0
aF741.0
aF1111.0
aF33.67
aF318.0
aF526.0
aF235.0
aF152.0
aF601.0
asI222
(lp87
F643.0
aF1618.0
aF39.74
aF150.0
aF468.0
aF32.05
aF430.0
aF637.0
aF67.5
aF1866.0
aF64.34
aF366.0
aF716.0
aF1082.0
aF37.31
aF338.0
aF439.0
aF166.0
aF102.0
aF555.0
aF736.0
aF1690.0
aF43.55
aF193.0
aF526.0
aF36.69
aF443.0
aF641.0
aF69.11
aF2108.0
aF72.69
aF342.0
aF730.0
aF1072.0
aF36.97
aF424.0
aF322.0
aF199.0
aF133.0
aF540.0
asI228
(lp88
F713.0
aF1787.0
aF39.9
aF194.0
aF624.0
aF31.09
aF435.0
aF718.0
aF60.58
aF2055.0
aF64.22
aF433.0
aF785.0
aF1218.0
aF38.06
aF298.0
aF528.0
aF247.0
aF129.0
aF620.0
aF769.0
aF1855.0
aF41.46
aF185.0
aF543.0
aF34.07
aF473.0
aF713.0
aF66.34
aF2196.0
aF68.62
aF422.0
aF784.0
aF1206.0
aF37.69
aF385.0
aF472.0
aF255.0
aF91.0
aF607.0
asI229
(lp89
F784.0
aF1765.0
aF44.42
aF167.0
aF515.0
aF32.43
aF456.0
aF692.0
aF65.9
aF2191.0
aF68.47
aF362.0
aF708.0
aF1070.0
aF33.44
aF396.0
aF360.0
aF191.0
aF158.0
aF587.0
aF743.0
aF1728.0
aF43.0
aF175.0
aF493.0
aF35.5
aF476.0
aF673.0
aF70.73
aF2137.0
aF66.78
aF372.0
aF738.0
aF1110.0
aF34.69
aF332.0
aF405.0
aF171.0
aF105.0
aF617.0
asI231
(lp90
F718.0
aF1638.0
aF43.83
aF164.0
aF500.0
aF32.8
aF550.0
aF802.0
aF68.58
aF2150.0
aF71.67
aF346.0
aF671.0
aF1017.0
aF33.9
aF320.0
aF441.0
aF248.0
aF112.0
aF625.0
aF766.0
aF1712.0
aF44.74
aF224.0
aF645.0
aF34.73
aF506.0
aF718.0
aF70.47
aF2262.0
aF75.4
aF394.0
aF719.0
aF1113.0
aF37.1
aF415.0
aF458.0
aF205.0
aF126.0
aF641.0
asI234
(lp91
F827.0
aF1903.0
aF43.46
aF212.0
aF634.0
aF33.44
aF482.0
aF725.0
aF66.48
aF2348.0
aF69.06
aF422.0
aF910.0
aF1332.0
aF39.18
aF423.0
aF541.0
aF288.0
aF203.0
aF651.0
aF696.0
aF1918.0
aF36.29
aF233.0
aF761.0
aF30.62
aF484.0
aF696.0
aF69.54
aF2109.0
aF62.03
aF403.0
aF764.0
aF1167.0
aF34.32
aF383.0
aF517.0
aF251.0
aF109.0
aF675.0
asI235
(lp92
F968.0
aF2083.0
aF46.47
aF233.0
aF661.0
aF35.25
aF498.0
aF744.0
aF66.94
aF2667.0
aF72.08
aF467.0
aF917.0
aF1384.0
aF37.41
aF521.0
aF452.0
aF221.0
aF131.0
aF545.0
aF872.0
aF2075.0
aF42.02
aF214.0
aF689.0
aF31.06
aF387.0
aF576.0
aF67.19
aF2345.0
aF63.38
aF393.0
aF788.0
aF1181.0
aF31.92
aF421.0
aF461.0
aF227.0
aF117.0
aF677.0
asI236
(lp93
F648.0
aF1636.0
aF39.61
aF182.0
aF541.0
aF33.64
aF317.0
aF503.0
aF63.02
aF1795.0
aF64.11
aF369.0
aF692.0
aF1061.0
aF37.89
aF350.0
aF393.0
aF117.0
aF123.0
aF514.0
aF727.0
aF1678.0
aF43.33
aF208.0
aF598.0
aF34.78
aF407.0
aF597.0
aF68.17
aF2069.0
aF73.89
aF351.0
aF710.0
aF1061.0
aF37.89
aF432.0
aF294.0
aF199.0
aF96.0
aF487.0
asI244
(lp94
F765.0
aF1712.0
aF44.68
aF238.0
aF636.0
aF37.42
aF503.0
aF694.0
aF72.48
aF2271.0
aF68.82
aF368.0
aF767.0
aF1135.0
aF34.39
aF404.0
aF436.0
aF170.0
aF114.0
aF621.0
aF731.0
aF1727.0
aF42.33
aF181.0
aF550.0
aF32.91
aF481.0
aF703.0
aF68.42
aF2124.0
aF64.36
aF352.0
aF688.0
aF1040.0
aF31.52
aF357.0
aF412.0
aF195.0
aF78.0
aF655.0
asI248
(lp95
F876.0
aF1861.0
aF47.07
aF227.0
aF574.0
aF39.55
aF495.0
aF718.0
aF68.94
aF2474.0
aF72.76
aF364.0
aF824.0
aF1188.0
aF34.94
aF483.0
aF376.0
aF224.0
aF110.0
aF581.0
aF761.0
aF1847.0
aF41.2
aF201.0
aF616.0
aF32.63
aF401.0
aF591.0
aF67.85
aF2124.0
aF62.47
aF376.0
aF741.0
aF1117.0
aF32.85
aF393.0
aF454.0
aF183.0
aF110.0
aF668.0
asI249
(lp96
F712.0
aF1716.0
aF41.49
aF182.0
aF541.0
aF33.64
aF405.0
aF646.0
aF62.69
aF2011.0
aF64.87
aF411.0
aF690.0
aF1101.0
aF35.52
aF371.0
aF396.0
aF199.0
aF123.0
aF569.0
aF693.0
aF1615.0
aF42.91
aF223.0
aF611.0
aF36.5
aF416.0
aF587.0
aF70.87
aF2025.0
aF65.32
aF333.0
aF719.0
aF1052.0
aF33.94
aF413.0
aF457.0
aF170.0
aF111.0
aF577.0
asI251
(lp97
F809.0
aF1703.0
aF47.5
aF223.0
aF631.0
aF35.34
aF417.0
aF568.0
aF73.42
aF2258.0
aF70.56
aF324.0
aF757.0
aF1081.0
aF33.78
aF481.0
aF433.0
aF193.0
aF139.0
aF603.0
aF737.0
aF1763.0
aF41.8
aF176.0
aF522.0
aF33.72
aF473.0
aF669.0
aF70.7
aF2123.0
aF66.34
aF361.0
aF638.0
aF999.0
aF31.22
aF393.0
aF364.0
aF226.0
aF122.0
aF544.0
asI253
(lp98
F745.0
aF1661.0
aF44.85
aF142.0
aF435.0
aF32.64
aF458.0
aF666.0
aF68.77
aF2090.0
aF65.31
aF316.0
aF655.0
aF971.0
aF30.34
aF381.0
aF575.0
aF276.0
aF87.0
aF703.0
aF823.0
aF1693.0
aF48.61
aF214.0
aF586.0
aF36.52
aF563.0
aF813.0
aF2208.46
aF2423.0
aF75.72
aF341.0
aF720.0
aF1061.0
aF33.16
aF471.0
aF511.0
aF259.0
aF91.0
aF633.0
asI254
(lp99
F707.0
aF1676.0
aF42.18
aF179.0
aF512.0
aF34.96
aF326.0
aF549.0
aF59.38
aF1919.0
aF61.9
aF386.0
aF717.0
aF1103.0
aF35.58
aF404.0
aF463.0
aF201.0
aF148.0
aF658.0
aF627.0
aF1548.0
aF40.5
aF178.0
aF539.0
aF33.02
aF556.0
aF783.0
aF71.01
aF1988.0
aF64.13
aF330.0
aF692.0
aF1022.0
aF32.97
aF350.0
aF418.0
aF208.0
aF105.0
aF508.0
asI255
(lp100
F752.0
aF1855.0
aF40.54
aF192.0
aF643.0
aF29.86
aF406.0
aF589.0
aF68.93
aF2102.0
aF67.81
aF394.0
aF707.0
aF1101.0
aF35.52
aF408.0
aF424.0
aF297.0
aF126.0
aF639.0
aF701.0
aF1592.0
aF44.03
aF196.0
aF517.0
aF37.91
aF481.0
aF719.0
aF66.9
aF2079.0
aF67.06
aF290.0
aF781.0
aF1071.0
aF34.55
aF394.0
aF514.0
aF200.0
aF83.0
aF563.0
asI257
(lp101
F823.0
aF1822.0
aF45.17
aF156.0
aF456.0
aF34.21
aF465.0
aF667.0
aF69.72
aF2267.0
aF68.7
aF407.0
aF836.0
aF1243.0
aF37.67
aF495.0
aF444.0
aF211.0
aF162.0
aF541.0
aF741.0
aF1866.0
aF39.71
aF190.0
aF596.0
aF31.88
aF453.0
aF648.0
aF69.91
aF2125.0
aF64.39
aF388.0
aF698.0
aF1086.0
aF32.91
aF296.0
aF396.0
aF219.0
aF111.0
aF565.0
asI260
(lp102
F932.0
aF1947.0
aF47.87
aF203.0
aF548.0
aF37.04
aF617.0
aF810.0
aF76.17
aF2684.0
aF76.69
aF398.0
aF916.0
aF1314.0
aF37.54
aF542.0
aF474.0
aF254.0
aF132.0
aF649.0
aF786.0
aF1947.0
aF40.37
aF253.0
aF693.0
aF36.51
aF482.0
aF685.0
aF70.36
aF2307.0
aF65.91
aF359.0
aF727.0
aF1086.0
aF31.03
aF373.0
aF503.0
aF228.0
aF100.0
aF717.0
asI261
(lp103
F699.0
aF1838.0
aF38.03
aF166.0
aF556.0
aF29.86
aF434.0
aF707.0
aF61.39
aF1998.0
aF60.55
aF375.0
aF822.0
aF1197.0
aF36.27
aF338.0
aF506.0
aF214.0
aF91.0
aF690.0
aF783.0
aF1802.0
aF43.45
aF158.0
aF464.0
aF34.05
aF538.0
aF854.0
aF63.0
aF2262.0
aF68.55
aF368.0
aF902.0
aF1270.0
aF38.48
aF392.0
aF486.0
aF231.0
aF120.0
aF602.0
asI270
(lp104
F746.0
aF1843.0
aF40.48
aF213.0
aF658.0
aF32.37
aF492.0
aF759.0
aF64.82
aF2197.0
aF66.58
aF367.0
aF803.0
aF1170.0
aF35.45
aF387.0
aF412.0
aF241.0
aF185.0
aF604.0
aF719.0
aF1874.0
aF38.37
aF180.0
aF567.0
aF31.75
aF452.0
aF671.0
aF67.36
aF2070.0
aF62.73
aF448.0
aF868.0
aF1316.0
aF39.88
aF336.0
aF517.0
aF168.0
aF105.0
aF666.0
asI272
(lp105
F672.0
aF1756.0
aF38.27
aF265.0
aF869.0
aF30.49
aF248.0
aF413.0
aF60.05
aF1857.0
aF59.9
aF324.0
aF636.0
aF960.0
aF30.97
aF367.0
aF388.0
aF244.0
aF77.0
aF573.0
aF668.0
aF1529.0
aF43.69
aF232.0
aF635.0
aF36.54
aF428.0
aF594.0
aF72.05
aF1996.0
aF64.39
aF313.0
aF848.0
aF1161.0
aF37.45
aF387.0
aF505.0
aF156.0
aF97.0
aF494.0
asI275
(lp106
F708.0
aF1492.0
aF47.45
aF205.0
aF543.0
aF37.75
aF523.0
aF647.0
aF80.83
aF2144.0
aF71.47
aF270.0
aF695.0
aF965.0
aF32.17
aF429.0
aF398.0
aF178.0
aF137.0
aF466.0
aF716.0
aF1654.0
aF43.29
aF189.0
aF518.0
aF36.49
aF312.0
aF424.0
aF73.58
aF1933.0
aF64.43
aF308.0
aF589.0
aF897.0
aF29.9
aF352.0
aF391.0
aF188.0
aF86.0
aF574.0
asI277
(lp107
F760.0
aF1685.0
aF45.1
aF193.0
aF541.0
aF35.67
aF503.0
aF734.0
aF68.53
aF2216.0
aF69.25
aF325.0
aF830.0
aF1155.0
aF36.09
aF380.0
aF509.0
aF177.0
aF134.0
aF623.0
aF733.0
aF1883.0
aF38.93
aF215.0
aF661.0
aF32.53
aF470.0
aF678.0
aF69.32
aF2151.0
aF67.22
aF395.0
aF697.0
aF1092.0
aF34.12
aF396.0
aF419.0
aF224.0
aF91.0
aF638.0
asI283
(lp108
F813.0
aF1835.0
aF44.31
aF208.0
aF583.0
aF35.68
aF501.0
aF658.0
aF76.14
aF2335.0
aF70.76
aF330.0
aF732.0
aF1062.0
aF32.18
aF448.0
aF346.0
aF211.0
aF141.0
aF595.0
aF815.0
aF1851.0
aF44.03
aF216.0
aF573.0
aF37.7
aF454.0
aF647.0
aF70.17
aF2300.0
aF69.7
aF412.0
aF779.0
aF1191.0
aF36.09
aF466.0
aF417.0
aF190.0
aF82.0
aF600.0
asI285
(lp109
F713.0
aF1618.0
aF44.07
aF148.0
aF454.0
aF32.6
aF375.0
aF577.0
aF64.99
aF1949.0
aF67.21
aF340.0
aF725.0
aF1065.0
aF36.72
aF385.0
aF387.0
aF118.0
aF109.0
aF530.0
aF713.0
aF1661.0
aF42.93
aF180.0
aF534.0
aF33.71
aF396.0
aF560.0
aF70.71
aF2002.0
aF69.03
aF301.0
aF674.0
aF975.0
aF33.62
aF385.0
aF296.0
aF167.0
aF108.0
aF525.0
asI287
(lp110
F735.0
aF1818.0
aF40.43
aF180.0
aF537.0
aF33.52
aF490.0
aF725.0
aF67.59
aF2140.0
aF69.03
aF380.0
aF701.0
aF1081.0
aF34.87
aF362.0
aF513.0
aF257.0
aF82.0
aF682.0
aF829.0
aF1795.0
aF46.18
aF222.0
aF620.0
aF35.81
aF549.0
aF850.0
aF64.59
aF2429.0
aF78.35
aF426.0
aF832.0
aF1258.0
aF40.58
aF483.0
aF512.0
aF236.0
aF145.0
aF647.0
asI288
(lp111
F726.0
aF1579.0
aF45.98
aF176.0
aF452.0
aF38.94
aF433.0
aF647.0
aF66.92
aF2061.0
aF68.7
aF305.0
aF707.0
aF1012.0
aF33.73
aF404.0
aF456.0
aF169.0
aF126.0
aF605.0
aF729.0
aF1726.0
aF42.24
aF172.0
aF546.0
aF31.5
aF462.0
aF669.0
aF69.06
aF2092.0
aF69.73
aF399.0
aF668.0
aF1067.0
aF35.57
aF393.0
aF388.0
aF206.0
aF107.0
aF597.0
asI290
(lp112
F593.0
aF1576.0
aF37.63
aF149.0
aF480.0
aF31.04
aF418.0
aF671.0
aF62.3
aF1753.0
aF58.43
aF396.0
aF641.0
aF1037.0
aF34.57
aF279.0
aF476.0
aF182.0
aF64.0
aF577.0
aF712.0
aF1580.0
aF45.06
aF214.0
aF590.0
aF36.27
aF460.0
aF710.0
aF64.79
aF2098.0
aF69.93
aF343.0
aF730.0
aF1073.0
aF35.77
aF444.0
aF414.0
aF222.0
aF131.0
aF571.0
asI294
(lp113
F646.0
aF1560.0
aF41.41
aF133.0
aF431.0
aF30.86
aF453.0
aF646.0
aF70.12
aF1878.0
aF64.76
aF343.0
aF619.0
aF962.0
aF33.17
aF277.0
aF386.0
aF194.0
aF95.0
aF545.0
aF713.0
aF1563.0
aF45.62
aF218.0
aF567.0
aF38.45
aF452.0
aF639.0
aF70.74
aF2096.0
aF72.28
aF326.0
aF676.0
aF1002.0
aF34.55
aF411.0
aF364.0
aF164.0
aF96.0
aF545.0
asI295
(lp114
F758.0
aF1644.0
aF46.11
aF202.0
aF528.0
aF38.26
aF454.0
aF630.0
aF72.06
aF2172.0
aF67.88
aF299.0
aF758.0
aF1057.0
aF33.03
aF455.0
aF470.0
aF210.0
aF98.0
aF537.0
aF761.0
aF1818.0
aF41.86
aF209.0
aF638.0
aF32.76
aF403.0
aF569.0
aF70.83
aF2134.0
aF66.69
aF378.0
aF668.0
aF1046.0
aF32.69
aF389.0
aF414.0
aF238.0
aF100.0
aF537.0
asI299
(lp115
F680.0
aF1599.0
aF42.53
aF153.0
aF493.0
aF31.03
aF380.0
aF537.0
aF70.76
aF1893.0
aF61.06
aF312.0
aF743.0
aF1055.0
aF34.03
aF346.0
aF414.0
aF153.0
aF124.0
aF568.0
aF694.0
aF1622.0
aF42.79
aF201.0
aF566.0
aF35.51
aF388.0
aF561.0
aF69.16
aF1977.0
aF63.77
aF291.0
aF705.0
aF996.0
aF32.13
aF373.0
aF359.0
aF204.0
aF69.0
aF537.0
asI301
(lp116
F894.0
aF1910.0
aF46.81
aF232.0
aF600.0
aF38.67
aF393.0
aF539.0
aF72.91
aF2413.0
aF70.97
aF342.0
aF836.0
aF1178.0
aF34.65
aF568.0
aF434.0
aF188.0
aF152.0
aF598.0
aF780.0
aF1931.0
aF40.39
aF205.0
aF672.0
aF30.51
aF457.0
aF632.0
aF72.31
aF2222.0
aF65.35
aF384.0
aF738.0
aF1122.0
aF33.0
aF415.0
aF413.0
aF191.0
aF95.0
aF551.0
asI302
(lp117
F723.0
aF1703.0
aF42.45
aF146.0
aF467.0
aF31.26
aF351.0
aF526.0
aF66.73
aF1943.0
aF62.68
aF396.0
aF731.0
aF1127.0
aF36.35
aF361.0
aF497.0
aF144.0
aF82.0
aF554.0
aF774.0
aF1720.0
aF45.0
aF189.0
aF526.0
aF35.93
aF415.0
aF612.0
aF67.81
aF2152.0
aF69.42
aF329.0
aF685.0
aF1014.0
aF32.71
aF410.0
aF380.0
aF214.0
aF99.0
aF544.0
asI305
(lp118
F769.0
aF1793.0
aF42.89
aF235.0
aF649.0
aF36.21
aF480.0
aF676.0
aF71.01
aF2253.0
aF66.26
aF352.0
aF820.0
aF1172.0
aF34.47
aF431.0
aF477.0
aF212.0
aF145.0
aF684.0
aF713.0
aF1755.0
aF40.63
aF194.0
aF585.0
aF33.16
aF572.0
aF796.0
aF71.86
aF2192.0
aF64.47
aF348.0
aF786.0
aF1134.0
aF33.35
aF385.0
aF445.0
aF204.0
aF94.0
aF664.0
asI306
(lp119
F789.0
aF1713.0
aF46.06
aF189.0
aF546.0
aF34.62
aF459.0
aF632.0
aF72.63
aF2226.0
aF69.56
aF339.0
aF710.0
aF1049.0
aF32.78
aF393.0
aF415.0
aF201.0
aF84.0
aF685.0
aF703.0
aF1622.0
aF43.34
aF202.0
aF555.0
aF36.4
aF574.0
aF815.0
aF70.43
aF2182.0
aF68.19
aF317.0
aF702.0
aF1019.0
aF31.84
aF377.0
aF413.0
aF207.0
aF118.0
aF620.0
asI308
(lp120
F766.0
aF1676.0
aF45.7
aF240.0
aF624.0
aF38.46
aF458.0
aF593.0
aF77.23
aF2230.0
aF74.33
aF280.0
aF673.0
aF953.0
aF31.77
aF436.0
aF365.0
aF151.0
aF90.0
aF646.0
aF704.0
aF1538.0
aF45.77
aF157.0
aF467.0
aF33.62
aF538.0
aF744.0
aF72.31
aF2103.0
aF70.1
aF267.0
aF693.0
aF960.0
aF32.0
aF346.0
aF422.0
aF184.0
aF110.0
aF571.0
asI310
(lp121
F1048.0
aF2200.0
aF47.64
aF298.0
aF795.0
aF37.48
aF528.0
aF804.0
aF65.67
aF2922.0
aF78.97
aF435.0
aF905.0
aF1340.0
aF36.22
aF645.0
aF468.0
aF278.0
aF122.0
aF665.0
aF926.0
aF2094.0
aF44.22
aF235.0
aF658.0
aF35.71
aF492.0
aF716.0
aF68.72
aF2579.0
aF69.7
aF380.0
aF875.0
aF1255.0
aF33.92
aF460.0
aF544.0
aF238.0
aF128.0
aF709.0
asI311
(lp122
F870.0
aF1993.0
aF43.65
aF275.0
aF747.0
aF36.81
aF380.0
aF527.0
aF72.11
aF2395.0
aF74.84
aF352.0
aF819.0
aF1171.0
aF36.59
aF480.0
aF401.0
aF216.0
aF118.0
aF524.0
aF823.0
aF1955.0
aF42.1
aF217.0
aF645.0
aF33.64
aF394.0
aF570.0
aF69.12
aF2257.0
aF70.53
aF399.0
aF846.0
aF1245.0
aF38.91
aF442.0
aF460.0
aF195.0
aF124.0
aF540.0
asI312
(lp123
F766.0
aF1743.0
aF43.95
aF146.0
aF465.0
aF31.4
aF406.0
aF601.0
aF67.55
aF2084.0
aF67.23
aF371.0
aF714.0
aF1085.0
aF35.0
aF423.0
aF447.0
aF208.0
aF89.0
aF512.0
aF768.0
aF1749.0
aF43.91
aF212.0
aF639.0
aF33.18
aF362.0
aF489.0
aF74.03
aF2110.0
aF68.06
aF340.0
aF705.0
aF1045.0
aF33.71
aF466.0
aF445.0
aF215.0
aF106.0
aF551.0
asI314
(lp124
F721.0
aF1719.0
aF41.94
aF188.0
aF570.0
aF32.98
aF466.0
aF731.0
aF63.75
aF2096.0
aF65.5
aF405.0
aF716.0
aF1121.0
aF35.03
aF426.0
aF481.0
aF250.0
aF102.0
aF668.0
aF657.0
aF1524.0
aF43.11
aF182.0
aF524.0
aF34.73
aF513.0
aF788.0
aF65.1
aF2009.0
aF62.78
aF290.0
aF748.0
aF1038.0
aF32.44
aF342.0
aF544.0
aF240.0
aF105.0
aF659.0
asI315
(lp125
F656.0
aF1546.0
aF42.43
aF174.0
aF473.0
aF36.79
aF342.0
aF527.0
aF64.9
aF1828.0
aF60.93
aF322.0
aF564.0
aF886.0
aF29.53
aF368.0
aF432.0
aF190.0
aF106.0
aF599.0
aF664.0
aF1423.0
aF46.66
aF141.0
aF397.0
aF35.52
aF505.0
aF706.0
aF71.53
aF1974.0
aF65.8
aF305.0
aF672.0
aF977.0
aF32.57
aF372.0
aF455.0
aF207.0
aF87.0
aF514.0
asI316
(lp126
F779.0
aF1846.0
aF42.2
aF144.0
aF463.0
aF31.1
aF474.0
aF708.0
aF66.95
aF2176.0
aF68.0
aF433.0
aF754.0
aF1187.0
aF37.09
aF390.0
aF484.0
aF274.0
aF123.0
aF684.0
aF704.0
aF1678.0
aF41.95
aF172.0
aF535.0
aF32.15
aF514.0
aF764.0
aF67.28
aF2094.0
aF65.44
aF351.0
aF747.0
aF1098.0
aF34.31
aF358.0
aF526.0
aF215.0
aF114.0
aF642.0
asI317
(lp127
F830.0
aF1811.0
aF45.83
aF199.0
aF526.0
aF37.83
aF496.0
aF698.0
aF71.06
aF2355.0
aF71.36
aF347.0
aF818.0
aF1165.0
aF35.3
aF455.0
aF421.0
aF177.0
aF124.0
aF591.0
aF778.0
aF1818.0
aF42.79
aF226.0
aF624.0
aF36.22
aF475.0
aF663.0
aF71.64
aF2257.0
aF68.39
aF316.0
aF749.0
aF1065.0
aF32.27
aF412.0
aF395.0
aF194.0
aF116.0
aF655.0
asI327
(lp128
F849.0
aF1939.0
aF43.79
aF237.0
aF631.0
aF37.56
aF542.0
aF828.0
aF65.46
aF2477.0
aF72.85
aF490.0
aF790.0
aF1280.0
aF37.65
aF474.0
aF498.0
aF208.0
aF154.0
aF692.0
aF751.0
aF1782.0
aF42.14
aF178.0
aF507.0
aF35.11
aF569.0
aF803.0
aF70.86
aF2249.0
aF66.15
aF350.0
aF708.0
aF1058.0
aF31.12
aF371.0
aF524.0
aF224.0
aF113.0
aF740.0
asI328
(lp129
F1114.0
aF2193.0
aF50.8
aF271.0
aF710.0
aF38.17
aF585.0
aF862.0
aF67.87
aF3084.0
aF81.16
aF449.0
aF1026.0
aF1475.0
aF38.82
aF674.0
aF507.0
aF295.0
aF153.0
aF666.0
aF862.0
aF2188.0
aF39.4
aF225.0
aF756.0
aF29.76
aF509.0
aF697.0
aF73.03
aF2458.0
aF64.68
aF397.0
aF775.0
aF1172.0
aF30.84
aF428.0
aF535.0
aF229.0
aF103.0
aF735.0
asI331
(lp130
F960.0
aF2177.0
aF44.1
aF202.0
aF601.0
aF33.61
aF504.0
aF754.0
aF66.84
aF2626.0
aF70.97
aF490.0
aF880.0
aF1370.0
aF37.03
aF513.0
aF476.0
aF286.0
aF151.0
aF642.0
aF902.0
aF2149.0
aF41.97
aF216.0
aF689.0
aF31.35
aF453.0
aF691.0
aF65.56
aF2473.0
aF66.84
aF483.0
aF868.0
aF1351.0
aF36.51
aF496.0
aF520.0
aF225.0
aF150.0
aF668.0
asI334
(lp131
F1002.0
aF2183.0
aF45.9
aF281.0
aF707.0
aF39.75
aF560.0
aF789.0
aF70.98
aF2845.0
aF74.87
aF445.0
aF975.0
aF1420.0
aF37.37
aF482.0
aF406.0
aF211.0
aF239.0
aF601.0
aF863.0
aF2188.0
aF39.44
aF210.0
aF649.0
aF32.36
aF476.0
aF658.0
aF72.34
aF2412.0
aF63.47
aF431.0
aF854.0
aF1285.0
aF33.82
aF419.0
aF458.0
aF201.0
aF132.0
aF695.0
asI340
(lp132
F923.0
aF2070.0
aF44.59
aF208.0
aF571.0
aF36.43
aF482.0
aF680.0
aF70.88
aF2536.0
aF76.85
aF461.0
aF812.0
aF1273.0
aF38.58
aF496.0
aF513.0
aF245.0
aF133.0
aF616.0
aF929.0
aF2069.0
aF44.9
aF222.0
aF622.0
aF35.69
aF515.0
aF734.0
aF70.16
aF2595.0
aF78.64
aF439.0
aF773.0
aF1212.0
aF36.73
aF522.0
aF458.0
aF250.0
aF175.0
aF605.0
asI342
(lp133
F754.0
aF1757.0
aF42.91
aF247.0
aF705.0
aF35.04
aF482.0
aF633.0
aF76.15
aF2237.0
aF69.91
aF292.0
aF739.0
aF1031.0
aF32.22
aF476.0
aF430.0
aF197.0
aF79.0
aF648.0
aF794.0
aF1768.0
aF44.91
aF217.0
aF608.0
aF35.69
aF505.0
aF715.0
aF70.63
aF2310.0
aF72.19
aF354.0
aF794.0
aF1148.0
aF35.88
aF417.0
aF442.0
aF182.0
aF101.0
aF618.0
asI346
(lp134
F846.0
aF1962.0
aF43.12
aF234.0
aF650.0
aF36.0
aF537.0
aF782.0
aF68.67
aF2463.0
aF82.1
aF466.0
aF769.0
aF1235.0
aF41.17
aF437.0
aF458.0
aF246.0
aF111.0
aF692.0
aF781.0
aF1781.0
aF43.85
aF175.0
aF534.0
aF32.77
aF542.0
aF805.0
aF67.33
aF2279.0
aF75.97
aF354.0
aF787.0
aF1141.0
aF38.03
aF421.0
aF509.0
aF174.0
aF113.0
aF654.0
asI352
(lp135
F743.0
aF1781.0
aF41.72
aF172.0
aF525.0
aF32.76
aF624.0
aF826.0
aF75.54
aF2282.0
aF73.61
aF351.0
aF786.0
aF1137.0
aF36.68
aF372.0
aF402.0
aF236.0
aF119.0
aF593.0
aF777.0
aF1808.0
aF42.98
aF207.0
aF574.0
aF36.06
aF471.0
aF689.0
aF68.36
aF2232.0
aF72.0
aF358.0
aF787.0
aF1145.0
aF36.94
aF431.0
aF462.0
aF183.0
aF126.0
aF655.0
asI355
(lp136
F779.0
aF1827.0
aF42.64
aF166.0
aF516.0
aF32.17
aF441.0
aF643.0
aF68.58
aF2165.0
aF67.66
aF448.0
aF789.0
aF1237.0
aF38.66
aF402.0
aF486.0
aF214.0
aF109.0
aF615.0
aF758.0
aF1774.0
aF42.73
aF193.0
aF607.0
aF31.8
aF391.0
aF630.0
aF62.06
aF2100.0
aF65.62
aF346.0
aF705.0
aF1051.0
aF32.84
aF399.0
aF453.0
aF206.0
aF106.0
aF592.0
asI361
(lp137
F928.0
aF2009.0
aF46.19
aF229.0
aF635.0
aF36.06
aF645.0
aF999.0
aF64.56
aF2730.0
aF82.73
aF479.0
aF899.0
aF1378.0
aF41.76
aF503.0
aF505.0
aF246.0
aF111.0
aF580.0
aF942.0
aF2165.0
aF43.51
aF208.0
aF701.0
aF29.67
aF374.0
aF567.0
aF65.96
aF2466.0
aF74.73
aF428.0
aF802.0
aF1230.0
aF37.27
aF516.0
aF497.0
aF224.0
aF114.0
aF775.0
asI363
(lp138
F849.0
aF1866.0
aF45.5
aF236.0
aF662.0
aF35.65
aF430.0
aF615.0
aF69.92
aF2364.0
aF76.26
aF316.0
aF711.0
aF1027.0
aF33.13
aF510.0
aF428.0
aF183.0
aF64.0
aF597.0
aF936.0
aF1933.0
aF48.42
aF203.0
aF589.0
aF34.47
aF477.0
aF693.0
aF68.83
aF2552.0
aF82.32
aF403.0
aF816.0
aF1219.0
aF39.32
aF503.0
aF423.0
aF200.0
aF84.0
aF554.0
asI365
(lp139
F692.0
aF1731.0
aF39.98
aF175.0
aF561.0
aF31.19
aF432.0
aF650.0
aF66.46
aF1991.0
aF62.22
aF368.0
aF742.0
aF1110.0
aF34.69
aF364.0
aF461.0
aF204.0
aF106.0
aF622.0
aF730.0
aF1759.0
aF41.5
aF174.0
aF531.0
aF32.77
aF496.0
aF703.0
aF70.55
aF2130.0
aF66.56
aF400.0
aF778.0
aF1178.0
aF36.81
aF297.0
aF426.0
aF234.0
aF133.0
aF593.0
asI366
(lp140
F721.0
aF1721.0
aF41.89
aF193.0
aF585.0
aF32.99
aF416.0
aF642.0
aF64.8
aF2051.0
aF64.09
aF358.0
aF794.0
aF1152.0
aF36.0
aF331.0
aF535.0
aF180.0
aF76.0
aF652.0
aF733.0
aF1716.0
aF42.72
aF205.0
aF624.0
aF32.85
aF503.0
aF725.0
aF69.38
aF2174.0
aF67.94
aF310.0
aF771.0
aF1081.0
aF33.78
aF402.0
aF439.0
aF259.0
aF91.0
aF627.0
asI367
(lp141
F949.0
aF2097.0
aF45.26
aF309.0
aF854.0
aF36.18
aF416.0
aF627.0
aF66.35
aF2623.0
aF74.94
aF434.0
aF838.0
aF1272.0
aF36.34
aF608.0
aF459.0
aF327.0
aF175.0
aF671.0
aF762.0
aF1935.0
aF39.38
aF199.0
aF639.0
aF31.14
aF536.0
aF770.0
aF69.61
aF2259.0
aF64.54
aF455.0
aF813.0
aF1268.0
aF36.23
aF395.0
aF564.0
aF237.0
aF92.0
aF597.0
asI369
(lp142
F701.0
aF1682.0
aF41.68
aF180.0
aF531.0
aF33.9
aF441.0
aF625.0
aF70.56
aF2023.0
aF67.43
aF389.0
aF674.0
aF1063.0
aF35.43
aF357.0
aF396.0
aF195.0
aF130.0
aF582.0
aF719.0
aF1600.0
aF44.94
aF132.0
aF390.0
aF33.85
aF441.0
aF636.0
aF69.34
aF2011.0
aF67.03
aF309.0
aF670.0
aF979.0
aF32.63
aF335.0
aF405.0
aF161.0
aF107.0
aF541.0
asI370
(lp143
F807.0
aF1871.0
aF43.13
aF149.0
aF464.0
aF32.11
aF502.0
aF723.0
aF69.43
aF2265.0
aF70.78
aF422.0
aF797.0
aF1219.0
aF38.09
aF435.0
aF455.0
aF215.0
aF130.0
aF606.0
aF811.0
aF1864.0
aF43.51
aF198.0
aF559.0
aF35.42
aF492.0
aF689.0
aF71.41
aF2312.0
aF72.25
aF369.0
aF764.0
aF1133.0
aF35.41
aF466.0
aF422.0
aF223.0
aF89.0
aF597.0
asI371
(lp144
F741.0
aF1733.0
aF42.76
aF200.0
aF553.0
aF36.17
aF471.0
aF639.0
aF73.71
aF2153.0
aF69.45
aF386.0
aF694.0
aF1080.0
aF34.84
aF383.0
aF396.0
aF186.0
aF110.0
aF541.0
aF750.0
aF1676.0
aF44.75
aF190.0
aF528.0
aF35.98
aF375.0
aF566.0
aF66.25
aF2065.0
aF66.61
aF330.0
aF687.0
aF1017.0
aF32.81
aF412.0
aF425.0
aF198.0
aF109.0
aF561.0
asI380
(lp145
F726.0
aF1576.0
aF46.07
aF191.0
aF539.0
aF35.44
aF446.0
aF638.0
aF69.91
aF2089.0
aF69.63
aF297.0
aF713.0
aF1010.0
aF33.67
aF396.0
aF387.0
aF169.0
aF102.0
aF532.0
aF701.0
aF1673.0
aF41.9
aF219.0
aF594.0
aF36.87
aF389.0
aF547.0
aF71.12
aF2010.0
aF67.0
aF333.0
aF659.0
aF992.0
aF33.07
aF404.0
aF364.0
aF173.0
aF90.0
aF532.0
asI381
(lp146
F677.0
aF1678.0
aF40.35
aF113.0
aF378.0
aF29.89
aF395.0
aF565.0
aF69.91
aF1862.0
aF60.06
aF369.0
aF676.0
aF1045.0
aF33.71
aF300.0
aF419.0
aF200.0
aF124.0
aF521.0
aF762.0
aF1725.0
aF44.17
aF246.0
aF639.0
aF38.5
aF391.0
aF600.0
aF65.17
aF2161.0
aF69.71
aF400.0
aF723.0
aF1123.0
aF36.23
aF478.0
aF379.0
aF214.0
aF115.0
aF537.0
asI386
(lp147
F662.0
aF1734.0
aF38.18
aF207.0
aF665.0
aF31.13
aF448.0
aF629.0
aF71.22
aF1979.0
aF59.97
aF326.0
aF780.0
aF1106.0
aF33.52
aF317.0
aF481.0
aF166.0
aF87.0
aF656.0
aF828.0
aF1900.0
aF43.58
aF225.0
aF655.0
aF34.35
aF502.0
aF714.0
aF70.31
aF2383.0
aF72.21
aF398.0
aF846.0
aF1244.0
aF37.7
aF464.0
aF360.0
aF253.0
aF137.0
aF598.0
asI387
(lp148
F973.0
aF2094.0
aF46.47
aF191.0
aF547.0
aF34.92
aF645.0
aF927.0
aF69.58
aF2782.0
aF75.19
aF457.0
aF872.0
aF1329.0
aF35.92
aF574.0
aF455.0
aF265.0
aF134.0
aF622.0
aF939.0
aF2142.0
aF43.84
aF260.0
aF727.0
aF35.76
aF408.0
aF618.0
aF66.02
aF2546.0
aF68.81
aF433.0
aF808.0
aF1241.0
aF33.54
aF564.0
aF518.0
aF233.0
aF129.0
aF763.0
asI388
(lp149
F854.0
aF1887.0
aF45.26
aF188.0
aF583.0
aF32.25
aF603.0
aF888.0
aF67.91
aF2499.0
aF73.5
aF440.0
aF858.0
aF1298.0
aF38.18
aF439.0
aF452.0
aF166.0
aF122.0
aF671.0
aF817.0
aF1939.0
aF42.14
aF185.0
aF620.0
aF29.84
aF472.0
aF720.0
aF65.56
aF2291.0
aF67.38
aF395.0
aF741.0
aF1136.0
aF33.41
aF398.0
aF436.0
aF212.0
aF112.0
aF764.0
asI391
(lp150
F700.0
aF1745.0
aF40.11
aF183.0
aF553.0
aF33.09
aF345.0
aF488.0
aF70.7
aF1928.0
aF64.27
aF330.0
aF646.0
aF976.0
aF32.53
aF346.0
aF395.0
aF178.0
aF48.0
aF593.0
aF785.0
aF1668.0
aF47.06
aF266.0
aF691.0
aF38.49
aF518.0
aF724.0
aF71.55
aF2354.0
aF78.47
aF341.0
aF787.0
aF1128.0
aF37.6
aF445.0
aF379.0
aF192.0
aF119.0
aF483.0
asI392
(lp151
F932.0
aF1980.0
aF47.07
aF151.0
aF434.0
aF34.79
aF521.0
aF770.0
aF67.66
aF2536.0
aF76.85
aF424.0
aF863.0
aF1287.0
aF39.0
aF557.0
aF450.0
aF222.0
aF150.0
aF549.0
aF805.0
aF1994.0
aF40.37
aF210.0
aF649.0
aF32.36
aF411.0
aF591.0
aF69.54
aF2231.0
aF67.61
aF402.0
aF759.0
aF1161.0
aF35.18
aF426.0
aF495.0
aF200.0
aF119.0
aF641.0
asI393
(lp152
F752.0
aF1855.0
aF40.54
aF165.0
aF568.0
aF29.05
aF427.0
aF654.0
aF65.29
aF2096.0
aF67.61
aF396.0
aF664.0
aF1060.0
aF34.19
aF382.0
aF450.0
aF205.0
aF49.0
aF667.0
aF820.0
aF1737.0
aF47.21
aF209.0
aF591.0
aF35.36
aF559.0
aF807.0
aF69.27
aF2408.0
aF77.68
aF376.0
aF819.0
aF1195.0
aF38.55
aF466.0
aF472.0
aF239.0
aF113.0
aF591.0
asI400
(lp153
F698.0
aF1742.0
aF40.07
aF165.0
aF568.0
aF29.05
aF427.0
aF645.0
aF66.2
aF1988.0
aF66.27
aF398.0
aF739.0
aF1137.0
aF37.9
aF337.0
aF412.0
aF192.0
aF115.0
aF629.0
aF677.0
aF1682.0
aF40.25
aF214.0
aF642.0
aF33.33
aF471.0
aF701.0
aF67.19
aF2039.0
aF67.97
aF371.0
aF737.0
aF1108.0
aF36.93
aF408.0
aF413.0
aF190.0
aF131.0
aF573.0
asI402
(lp154
F831.0
aF1904.0
aF43.64
aF226.0
aF640.0
aF35.31
aF558.0
aF748.0
aF74.6
aF2446.0
aF74.12
aF392.0
aF774.0
aF1166.0
aF35.33
aF370.0
aF403.0
aF214.0
aF102.0
aF643.0
aF799.0
aF1854.0
aF43.1
aF229.0
aF687.0
aF33.33
aF527.0
aF788.0
aF66.88
aF2354.0
aF71.33
aF414.0
aF793.0
aF1207.0
aF36.58
aF402.0
aF466.0
aF202.0
aF99.0
aF632.0
asI404
(lp155
F891.0
aF1974.0
aF45.14
aF210.0
aF639.0
aF32.86
aF532.0
aF782.0
aF68.03
aF2524.0
aF72.11
aF421.0
aF825.0
aF1246.0
aF35.6
aF512.0
aF535.0
aF297.0
aF183.0
aF712.0
aF828.0
aF1988.0
aF41.65
aF205.0
aF622.0
aF32.96
aF531.0
aF778.0
aF68.25
aF2392.0
aF68.34
aF445.0
aF772.0
aF1217.0
aF34.77
aF450.0
aF520.0
aF259.0
aF142.0
aF671.0
asI406
(lp156
F738.0
aF1766.0
aF41.79
aF212.0
aF642.0
aF33.02
aF532.0
aF771.0
aF69.0
aF2220.0
aF67.27
aF347.0
aF736.0
aF1083.0
aF32.82
aF395.0
aF469.0
aF243.0
aF89.0
aF692.0
aF754.0
aF1735.0
aF43.46
aF193.0
aF607.0
aF31.8
aF557.0
aF804.0
aF69.28
aF2258.0
aF68.42
aF358.0
aF800.0
aF1158.0
aF35.09
aF381.0
aF509.0
aF248.0
aF112.0
aF706.0
asI414
(lp157
F743.0
aF1722.0
aF43.15
aF249.0
aF714.0
aF34.87
aF455.0
aF625.0
aF72.8
aF2190.0
aF66.36
aF309.0
aF777.0
aF1086.0
aF32.91
aF372.0
aF465.0
aF162.0
aF92.0
aF559.0
aF836.0
aF1886.0
aF44.33
aF223.0
aF605.0
aF36.86
aF424.0
aF601.0
aF70.55
aF2319.0
aF70.27
aF369.0
aF760.0
aF1129.0
aF34.21
aF451.0
aF353.0
aF233.0
aF93.0
aF581.0
asI415
(lp158
F872.0
aF1955.0
aF44.6
aF283.0
aF750.0
aF37.73
aF552.0
aF761.0
aF72.54
aF2579.0
aF71.64
aF429.0
aF879.0
aF1308.0
aF36.33
aF416.0
aF498.0
aF203.0
aF124.0
aF650.0
aF833.0
aF1999.0
aF41.67
aF245.0
aF693.0
aF35.35
aF522.0
aF756.0
aF69.05
aF2433.0
aF67.58
aF400.0
aF771.0
aF1171.0
aF32.53
aF447.0
aF430.0
aF255.0
aF120.0
aF674.0
asI416
(lp159
F817.0
aF1894.0
aF43.14
aF220.0
aF620.0
aF35.48
aF484.0
aF691.0
aF70.04
aF2338.0
aF68.76
aF407.0
aF849.0
aF1256.0
aF36.94
aF509.0
aF454.0
aF219.0
aF167.0
aF648.0
aF787.0
aF1861.0
aF42.29
aF215.0
aF591.0
aF36.38
aF474.0
aF716.0
aF66.2
aF2263.0
aF66.56
aF347.0
aF772.0
aF1119.0
aF32.91
aF404.0
aF411.0
aF217.0
aF113.0
aF607.0
asI418
(lp160
F847.0
aF1889.0
aF44.84
aF283.0
aF804.0
aF35.2
aF351.0
aF502.0
aF69.92
aF2328.0
aF66.51
aF289.0
aF826.0
aF1115.0
aF31.86
aF480.0
aF351.0
aF168.0
aF69.0
aF587.0
aF795.0
aF1854.0
aF42.88
aF222.0
aF696.0
aF31.9
aF375.0
aF553.0
aF67.81
aF2187.0
aF62.49
aF335.0
aF843.0
aF1178.0
aF33.66
aF451.0
aF409.0
aF150.0
aF100.0
aF580.0
asI419
(lp161
F733.0
aF1719.0
aF42.64
aF168.0
aF492.0
aF34.15
aF584.0
aF823.0
aF70.96
aF2218.0
aF69.31
aF392.0
aF734.0
aF1126.0
aF35.19
aF339.0
aF485.0
aF277.0
aF114.0
aF756.0
aF662.0
aF1554.0
aF42.6
aF185.0
aF530.0
aF34.91
aF612.0
aF890.0
aF68.76
aF2121.0
aF66.28
aF322.0
aF729.0
aF1051.0
aF32.84
aF345.0
aF538.0
aF208.0
aF117.0
aF703.0
asI428
(lp162
F753.0
aF1660.0
aF45.36
aF152.0
aF474.0
aF32.07
aF479.0
aF726.0
aF65.98
aF2137.0
aF68.94
aF397.0
aF783.0
aF1180.0
aF38.06
aF487.0
aF413.0
aF211.0
aF169.0
aF504.0
aF710.0
aF1780.0
aF39.89
aF265.0
aF767.0
aF34.55
aF391.0
aF521.0
aF75.05
aF2076.0
aF66.97
aF362.0
aF659.0
aF1021.0
aF32.94
aF456.0
aF355.0
aF210.0
aF93.0
aF619.0
asI430
(lp163
F739.0
aF1701.0
aF43.45
aF246.0
aF680.0
aF36.18
aF441.0
aF610.0
aF72.3
aF2165.0
aF69.84
aF306.0
aF813.0
aF1119.0
aF36.1
aF392.0
aF413.0
aF163.0
aF128.0
aF471.0
aF799.0
aF1917.0
aF41.68
aF232.0
aF689.0
aF33.67
aF347.0
aF523.0
aF66.35
aF2177.0
aF70.23
aF389.0
aF752.0
aF1141.0
aF36.81
aF359.0
aF339.0
aF207.0
aF91.0
aF544.0
asI432
(lp164
F752.0
aF1855.0
aF40.54
aF204.0
aF630.0
aF32.38
aF478.0
aF719.0
aF66.48
aF2186.0
aF68.31
aF392.0
aF814.0
aF1206.0
aF37.69
aF393.0
aF555.0
aF227.0
aF91.0
aF729.0
aF801.0
aF1843.0
aF43.46
aF186.0
aF582.0
aF31.96
aF605.0
aF869.0
aF69.62
aF2393.0
aF74.78
aF360.0
aF840.0
aF1200.0
aF37.5
aF439.0
aF483.0
aF251.0
aF142.0
aF614.0
asI433
(lp165
F868.0
aF1964.0
aF44.2
aF260.0
aF740.0
aF35.14
aF517.0
aF684.0
aF75.58
aF2513.0
aF73.91
aF418.0
aF811.0
aF1229.0
aF36.15
aF415.0
aF435.0
aF180.0
aF180.0
aF638.0
aF803.0
aF1889.0
aF42.51
aF212.0
aF607.0
aF34.93
aF532.0
aF740.0
aF71.89
aF2350.0
aF69.12
aF378.0
aF766.0
aF1144.0
aF33.65
aF480.0
aF441.0
aF203.0
aF115.0
aF611.0
asI434
(lp166
F983.0
aF2145.0
aF45.83
aF245.0
aF669.0
aF36.62
aF537.0
aF727.0
aF73.87
aF2748.0
aF80.82
aF425.0
aF772.0
aF1197.0
aF35.21
aF557.0
aF431.0
aF329.0
aF171.0
aF689.0
aF851.0
aF1943.0
aF43.8
aF197.0
aF577.0
aF34.14
aF536.0
aF775.0
aF69.16
aF2435.0
aF71.62
aF439.0
aF827.0
aF1266.0
aF37.24
aF460.0
aF614.0
aF198.0
aF96.0
aF647.0
asI439
(lp167
F632.0
aF1551.0
aF40.75
aF178.0
aF548.0
aF32.48
aF376.0
aF588.0
aF63.95
aF1818.0
aF60.6
aF325.0
aF699.0
aF1024.0
aF34.13
aF376.0
aF439.0
aF203.0
aF63.0
aF520.0
aF685.0
aF1639.0
aF41.79
aF242.0
aF681.0
aF35.54
aF364.0
aF540.0
aF67.41
aF1976.0
aF65.87
aF349.0
aF715.0
aF1064.0
aF35.47
aF438.0
aF408.0
aF192.0
aF128.0
aF536.0
asI440
(lp168
F716.0
aF1730.0
aF41.39
aF235.0
aF706.0
aF33.29
aF412.0
aF637.0
aF64.68
aF2079.0
aF67.06
aF362.0
aF691.0
aF1053.0
aF33.97
aF374.0
aF373.0
aF179.0
aF75.0
aF560.0
aF750.0
aF1667.0
aF44.99
aF194.0
aF509.0
aF38.11
aF436.0
aF650.0
aF67.08
aF2130.0
aF68.71
aF346.0
aF771.0
aF1117.0
aF36.03
aF367.0
aF412.0
aF195.0
aF89.0
aF582.0
asI441
(lp169
F766.0
aF1657.0
aF46.23
aF148.0
aF474.0
aF31.22
aF471.0
aF705.0
aF66.81
aF2151.0
aF67.22
aF325.0
aF786.0
aF1111.0
aF34.72
aF421.0
aF402.0
aF219.0
aF153.0
aF553.0
aF682.0
aF1710.0
aF39.88
aF164.0
aF505.0
aF32.48
aF422.0
aF598.0
aF70.57
aF1950.0
aF60.94
aF353.0
aF704.0
aF1057.0
aF33.03
aF300.0
aF429.0
aF194.0
aF84.0
aF584.0
asI444
(lp170
F851.0
aF1874.0
aF45.41
aF204.0
aF601.0
aF33.94
aF506.0
aF751.0
aF67.38
aF2412.0
aF68.91
aF484.0
aF827.0
aF1311.0
aF37.46
aF424.0
aF525.0
aF300.0
aF110.0
aF653.0
aF735.0
aF1756.0
aF41.86
aF245.0
aF672.0
aF36.46
aF447.0
aF645.0
aF69.3
aF2162.0
aF61.77
aF313.0
aF679.0
aF992.0
aF28.34
aF455.0
aF523.0
aF238.0
aF95.0
aF675.0
asI446
(lp171
F708.0
aF1687.0
aF41.97
aF123.0
aF416.0
aF29.57
aF522.0
aF766.0
aF68.15
aF2061.0
aF66.48
aF405.0
aF734.0
aF1139.0
aF36.74
aF372.0
aF470.0
aF192.0
aF118.0
aF625.0
aF708.0
aF1650.0
aF42.91
aF153.0
aF476.0
aF32.14
aF502.0
aF724.0
aF69.34
aF2071.0
aF66.81
aF329.0
aF698.0
aF1027.0
aF33.13
aF372.0
aF447.0
aF237.0
aF146.0
aF622.0
asI450
(lp172
F689.0
aF1645.0
aF41.88
aF150.0
aF462.0
aF32.47
aF412.0
aF606.0
aF67.99
aF1940.0
aF60.62
aF305.0
aF719.0
aF1024.0
aF32.0
aF378.0
aF475.0
aF187.0
aF112.0
aF616.0
aF750.0
aF1759.0
aF42.64
aF168.0
aF515.0
aF32.62
aF456.0
aF677.0
aF67.36
aF2124.0
aF66.38
aF406.0
aF743.0
aF1149.0
aF35.91
aF406.0
aF435.0
aF213.0
aF100.0
aF588.0
asI454
(lp173
F737.0
aF1606.0
aF45.89
aF192.0
aF506.0
aF37.94
aF528.0
aF755.0
aF69.93
aF2194.0
aF68.56
aF347.0
aF684.0
aF1031.0
aF32.22
aF433.0
aF448.0
aF242.0
aF93.0
aF597.0
aF688.0
aF1586.0
aF43.38
aF158.0
aF451.0
aF35.03
aF445.0
aF634.0
aF70.19
aF1979.0
aF61.84
aF312.0
aF645.0
aF957.0
aF29.91
aF356.0
aF479.0
aF183.0
aF85.0
aF649.0
asI456
(lp174
F881.0
aF1950.0
aF45.18
aF168.0
aF515.0
aF32.62
aF576.0
aF810.0
aF71.11
aF2506.0
aF73.71
aF400.0
aF813.0
aF1213.0
aF35.68
aF492.0
aF506.0
aF310.0
aF152.0
aF664.0
aF803.0
aF1925.0
aF41.71
aF218.0
aF648.0
aF33.64
aF509.0
aF747.0
aF68.14
aF2333.0
aF68.62
aF440.0
aF806.0
aF1246.0
aF36.65
aF432.0
aF592.0
aF251.0
aF121.0
aF690.0
asI457
(lp175
F1044.0
aF2318.0
aF45.04
aF190.0
aF580.0
aF32.76
aF590.0
aF878.0
aF67.2
aF2868.0
aF77.51
aF525.0
aF1053.0
aF1578.0
aF42.65
aF573.0
aF493.0
aF232.0
aF204.0
aF597.0
aF948.0
aF2339.0
aF40.53
aF267.0
aF806.0
aF33.13
aF382.0
aF580.0
aF65.86
aF2545.0
aF68.78
aF454.0
aF889.0
aF1343.0
aF36.3
aF474.0
aF528.0
aF278.0
aF114.0
aF744.0
asI458
(lp176
F674.0
aF1629.0
aF41.38
aF202.0
aF606.0
aF33.33
aF447.0
aF613.0
aF72.92
aF1997.0
aF66.57
aF326.0
aF731.0
aF1057.0
aF35.23
aF353.0
aF447.0
aF193.0
aF96.0
aF529.0
aF769.0
aF1769.0
aF43.47
aF194.0
aF635.0
aF30.55
aF398.0
aF560.0
aF71.07
aF2130.0
aF71.0
aF330.0
aF710.0
aF1040.0
aF34.67
aF424.0
aF351.0
aF219.0
aF107.0
aF566.0
asI459
(lp177
F780.0
aF1820.0
aF42.86
aF186.0
aF522.0
aF35.63
aF458.0
aF664.0
aF68.98
aF2204.0
aF71.1
aF363.0
aF693.0
aF1056.0
aF34.06
aF353.0
aF473.0
aF205.0
aF76.0
aF660.0
aF850.0
aF1796.0
aF47.33
aF247.0
aF646.0
aF38.24
aF554.0
aF780.0
aF71.03
aF2501.0
aF80.68
aF375.0
aF760.0
aF1135.0
aF36.61
aF464.0
aF442.0
aF264.0
aF111.0
aF568.0
asI460
(lp178
F714.0
aF1646.0
aF43.38
aF221.0
aF599.0
aF36.89
aF326.0
aF473.0
aF68.92
aF1975.0
aF63.71
aF345.0
aF686.0
aF1031.0
aF33.26
aF350.0
aF424.0
aF169.0
aF105.0
aF492.0
aF750.0
aF1728.0
aF43.4
aF214.0
aF613.0
aF34.91
aF353.0
aF539.0
aF65.49
aF2067.0
aF66.68
aF407.0
aF682.0
aF1089.0
aF35.13
aF411.0
aF374.0
aF236.0
aF114.0
aF506.0
asI463
(lp179
F773.0
aF1677.0
aF46.09
aF164.0
aF522.0
aF31.42
aF414.0
aF590.0
aF70.17
aF2124.0
aF66.38
aF303.0
aF828.0
aF1131.0
aF35.34
aF415.0
aF431.0
aF208.0
aF115.0
aF550.0
aF657.0
aF1691.0
aF38.85
aF229.0
aF681.0
aF33.63
aF393.0
aF581.0
aF67.64
aF1936.0
aF60.5
aF310.0
aF706.0
aF1016.0
aF31.75
aF351.0
aF420.0
aF201.0
aF104.0
aF556.0
asI465
(lp180
F842.0
aF1836.0
aF45.86
aF184.0
aF558.0
aF32.97
aF495.0
aF718.0
aF68.94
aF2363.0
aF71.61
aF368.0
aF783.0
aF1151.0
aF34.88
aF507.0
aF414.0
aF268.0
aF121.0
aF635.0
aF704.0
aF1737.0
aF40.53
aF189.0
aF575.0
aF32.87
aF480.0
aF689.0
aF69.67
aF2077.0
aF62.94
aF363.0
aF743.0
aF1106.0
aF33.52
aF358.0
aF535.0
aF165.0
aF84.0
aF648.0
asI466
(lp181
F753.0
aF1782.0
aF42.26
aF210.0
aF606.0
aF34.65
aF529.0
aF771.0
aF68.61
aF2245.0
aF70.16
aF390.0
aF788.0
aF1178.0
aF36.81
aF356.0
aF459.0
aF154.0
aF117.0
aF653.0
aF778.0
aF1827.0
aF42.58
aF191.0
aF561.0
aF34.05
aF532.0
aF749.0
aF71.03
aF2279.0
aF71.22
aF373.0
aF760.0
aF1133.0
aF35.41
aF398.0
aF398.0
aF199.0
aF90.0
aF660.0
asI469
(lp182
F609.0
aF1628.0
aF37.41
aF191.0
aF658.0
aF29.03
aF340.0
aF555.0
aF61.26
aF1749.0
aF58.3
aF363.0
aF696.0
aF1059.0
aF35.3
aF292.0
aF360.0
aF134.0
aF93.0
aF546.0
aF639.0
aF1560.0
aF40.96
aF157.0
aF475.0
aF33.05
aF391.0
aF585.0
aF66.84
aF1826.0
aF60.87
aF317.0
aF778.0
aF1095.0
aF36.5
aF260.0
aF370.0
aF162.0
aF92.0
aF541.0
asI471
(lp183
F743.0
aF1734.0
aF42.85
aF222.0
aF610.0
aF36.39
aF357.0
aF578.0
aF61.76
aF2065.0
aF68.83
aF331.0
aF743.0
aF1074.0
aF35.8
aF390.0
aF408.0
aF179.0
aF110.0
aF633.0
aF675.0
aF1596.0
aF42.29
aF201.0
aF562.0
aF35.77
aF501.0
aF731.0
aF68.54
aF2052.0
aF68.4
aF295.0
aF770.0
aF1065.0
aF35.5
aF405.0
aF434.0
aF176.0
aF115.0
aF513.0
asI472
(lp184
F793.0
aF1780.0
aF44.55
aF184.0
aF554.0
aF33.21
aF594.0
aF879.0
aF67.58
aF2364.0
aF71.64
aF373.0
aF784.0
aF1157.0
aF35.06
aF410.0
aF487.0
aF215.0
aF124.0
aF612.0
aF825.0
aF1875.0
aF44.0
aF207.0
aF634.0
aF32.65
aF459.0
aF686.0
aF66.91
aF2316.0
aF70.18
aF379.0
aF761.0
aF1140.0
aF34.55
aF436.0
aF498.0
aF215.0
aF96.0
aF685.0
asI473
(lp185
F877.0
aF1917.0
aF45.75
aF226.0
aF654.0
aF34.56
aF582.0
aF817.0
aF71.24
aF2562.0
aF73.2
aF410.0
aF890.0
aF1300.0
aF37.14
aF535.0
aF471.0
aF211.0
aF116.0
aF671.0
aF813.0
aF1923.0
aF42.28
aF226.0
aF682.0
aF33.14
aF456.0
aF688.0
aF66.28
aF2308.0
aF65.94
aF342.0
aF749.0
aF1091.0
aF31.17
aF445.0
aF461.0
aF212.0
aF104.0
aF738.0
asI474
(lp186
F561.0
aF1198.0
aF46.83
aF139.0
aF402.0
aF34.58
aF377.0
aF516.0
aF73.06
aF1638.0
aF74.45
aF249.0
aF580.0
aF829.0
aF37.68
aF309.0
aF337.0
aF157.0
aF59.0
aF401.0
aF468.0
aF1213.0
aF38.58
aF111.0
aF415.0
aF26.75
aF313.0
aF466.0
aF67.17
aF1360.0
aF61.82
aF227.0
aF471.0
aF698.0
aF31.73
aF219.0
aF331.0
aF130.0
aF38.0
aF423.0
asI482
(lp187
F663.0
aF1781.0
aF37.23
aF174.0
aF632.0
aF27.53
aF466.0
aF706.0
aF66.01
aF1966.0
aF61.44
aF371.0
aF690.0
aF1061.0
aF33.16
aF335.0
aF449.0
aF256.0
aF110.0
aF616.0
aF795.0
aF1809.0
aF43.95
aF190.0
aF570.0
aF33.33
aF470.0
aF695.0
aF67.63
aF2250.0
aF70.31
aF437.0
aF879.0
aF1316.0
aF41.12
aF475.0
aF496.0
aF239.0
aF127.0
aF619.0
asI483
(lp188
F634.0
aF1432.0
aF44.27
aF190.0
aF567.0
aF33.51
aF378.0
aF550.0
aF68.73
aF1836.0
aF65.57
aF255.0
aF552.0
aF807.0
aF28.82
aF395.0
aF358.0
aF223.0
aF28.0
aF544.0
aF576.0
aF1294.0
aF44.51
aF139.0
aF424.0
aF32.78
aF439.0
aF611.0
aF71.85
aF1730.0
aF61.79
aF268.0
aF641.0
aF909.0
aF32.46
aF308.0
aF477.0
aF166.0
aF79.0
aF532.0
asI485
(lp189
F782.0
aF1791.0
aF43.66
aF176.0
aF574.0
aF30.66
aF498.0
aF735.0
aF67.76
aF2238.0
aF69.94
aF363.0
aF780.0
aF1143.0
aF35.72
aF412.0
aF515.0
aF204.0
aF183.0
aF694.0
aF791.0
aF1831.0
aF43.2
aF194.0
aF533.0
aF36.4
aF614.0
aF876.0
aF2202.82
aF2390.0
aF74.69
aF395.0
aF763.0
aF1158.0
aF36.19
aF388.0
aF417.0
aF216.0
aF100.0
aF611.0
asI488
(lp190
F779.0
aF1806.0
aF43.13
aF205.0
aF631.0
aF32.49
aF519.0
aF780.0
aF66.54
aF2282.0
aF71.31
aF374.0
aF805.0
aF1179.0
aF36.84
aF385.0
aF477.0
aF207.0
aF150.0
aF531.0
aF850.0
aF2066.0
aF41.14
aF277.0
aF827.0
aF33.49
aF395.0
aF549.0
aF71.95
aF2372.0
aF74.12
aF495.0
aF788.0
aF1283.0
aF40.09
aF449.0
aF446.0
aF248.0
aF144.0
aF648.0
asI489
(lp191
F722.0
aF1606.0
aF44.96
aF199.0
aF562.0
aF35.41
aF419.0
aF607.0
aF69.03
aF2062.0
aF68.73
aF307.0
aF657.0
aF964.0
aF32.13
aF353.0
aF466.0
aF234.0
aF93.0
aF624.0
aF719.0
aF1622.0
aF44.33
aF184.0
aF576.0
aF31.94
aF481.0
aF675.0
aF71.26
aF2103.0
aF70.1
aF354.0
aF687.0
aF1041.0
aF34.7
aF388.0
aF470.0
aF178.0
aF96.0
aF539.0
asI490
(lp192
F799.0
aF1818.0
aF43.95
aF139.0
aF423.0
aF32.86
aF454.0
aF654.0
aF69.42
aF2191.0
aF70.68
aF400.0
aF752.0
aF1152.0
aF37.16
aF442.0
aF376.0
aF191.0
aF138.0
aF533.0
aF789.0
aF1862.0
aF42.37
aF163.0
aF509.0
aF32.02
aF443.0
aF602.0
aF73.59
aF2184.0
aF70.45
aF407.0
aF728.0
aF1135.0
aF36.61
aF362.0
aF360.0
aF193.0
aF138.0
aF533.0
asI493
(lp193
F778.0
aF1651.0
aF47.12
aF165.0
aF432.0
aF38.19
aF467.0
aF674.0
aF69.29
aF2188.0
aF75.45
aF341.0
aF696.0
aF1037.0
aF35.76
aF396.0
aF381.0
aF170.0
aF76.0
aF566.0
aF727.0
aF1643.0
aF44.25
aF153.0
aF454.0
aF33.7
aF455.0
aF625.0
aF72.8
aF2062.0
aF71.1
aF307.0
aF628.0
aF935.0
aF32.24
aF336.0
aF383.0
aF165.0
aF127.0
aF568.0
asI494
(lp194
F779.0
aF1826.0
aF42.66
aF215.0
aF629.0
aF34.18
aF546.0
aF804.0
aF67.91
aF2319.0
aF68.21
aF334.0
aF870.0
aF1204.0
aF35.41
aF420.0
aF484.0
aF209.0
aF131.0
aF671.0
aF799.0
aF1873.0
aF42.66
aF204.0
aF597.0
aF34.17
aF525.0
aF761.0
aF68.99
aF2327.0
aF68.44
aF329.0
aF859.0
aF1188.0
aF34.94
aF424.0
aF473.0
aF225.0
aF96.0
aF707.0
asI497
(lp195
F831.0
aF1735.0
aF47.9
aF179.0
aF474.0
aF37.76
aF675.0
aF900.0
aF75.0
aF2516.0
aF76.24
aF323.0
aF842.0
aF1165.0
aF35.3
aF407.0
aF439.0
aF139.0
aF77.0
aF598.0
aF854.0
aF1934.0
aF44.16
aF190.0
aF563.0
aF33.75
aF460.0
aF677.0
aF67.95
aF2358.0
aF71.45
aF361.0
aF710.0
aF1071.0
aF32.45
aF413.0
aF384.0
aF212.0
aF109.0
aF733.0
asI498
(lp196
F669.0
aF1606.0
aF41.66
aF158.0
aF492.0
aF32.11
aF363.0
aF560.0
aF64.82
aF1859.0
aF59.97
aF329.0
aF618.0
aF947.0
aF30.55
aF311.0
aF441.0
aF193.0
aF51.0
aF588.0
aF734.0
aF1554.0
aF47.23
aF214.0
aF556.0
aF38.49
aF444.0
aF640.0
aF69.38
aF2126.0
aF68.58
aF284.0
aF692.0
aF976.0
aF31.48
aF419.0
aF399.0
aF197.0
aF89.0
aF539.0
asI28755
(lp197
F667.0
aF1662.0
aF40.13
aF175.0
aF531.0
aF32.96
aF461.0
aF708.0
aF65.11
aF1970.0
aF65.67
aF397.0
aF701.0
aF1098.0
aF36.6
aF362.0
aF500.0
aF189.0
aF65.0
aF559.0
aF765.0
aF1707.0
aF44.82
aF251.0
aF681.0
aF36.86
aF404.0
aF603.0
aF67.0
aF2185.0
aF72.83
aF341.0
aF727.0
aF1068.0
aF35.6
aF434.0
aF451.0
aF251.0
aF96.0
aF618.0
asI500
(lp198
F719.0
aF1610.0
aF44.66
aF193.0
aF509.0
aF37.92
aF433.0
aF577.0
aF75.04
aF2064.0
aF66.58
aF294.0
aF603.0
aF897.0
aF28.94
aF427.0
aF389.0
aF211.0
aF70.0
aF595.0
aF751.0
aF1584.0
aF47.41
aF193.0
aF490.0
aF39.39
aF488.0
aF679.0
aF71.87
aF2183.0
aF70.42
aF336.0
aF680.0
aF1016.0
aF32.77
aF423.0
aF389.0
aF199.0
aF129.0
aF536.0
asI501
(lp199
F850.0
aF1747.0
aF48.65
aF205.0
aF485.0
aF42.27
aF394.0
aF593.0
aF66.44
aF2299.0
aF71.84
aF313.0
aF765.0
aF1078.0
aF33.69
aF546.0
aF417.0
aF202.0
aF133.0
aF609.0
aF716.0
aF1749.0
aF40.94
aF193.0
aF591.0
aF32.66
aF453.0
aF639.0
aF70.89
aF2078.0
aF64.94
aF365.0
aF693.0
aF1058.0
aF33.06
aF364.0
aF426.0
aF181.0
aF106.0
aF564.0
asI502
(lp200
F731.0
aF1709.0
aF42.77
aF254.0
aF657.0
aF38.66
aF571.0
aF742.0
aF76.95
aF2287.0
aF71.47
aF376.0
aF774.0
aF1150.0
aF35.94
aF375.0
aF454.0
aF193.0
aF62.0
aF608.0
aF682.0
aF1660.0
aF41.08
aF238.0
aF684.0
aF34.8
aF503.0
aF711.0
aF70.75
aF2105.0
aF65.78
aF305.0
aF690.0
aF995.0
aF31.09
aF399.0
aF447.0
aF199.0
aF107.0
aF648.0
asI503
(lp201
F713.0
aF1694.0
aF42.09
aF174.0
aF537.0
aF32.4
aF455.0
aF653.0
aF69.68
aF2055.0
aF68.5
aF340.0
aF760.0
aF1100.0
aF36.67
aF361.0
aF428.0
aF168.0
aF73.0
aF606.0
aF756.0
aF1711.0
aF44.18
aF190.0
aF548.0
aF34.67
aF497.0
aF731.0
aF67.99
aF2199.0
aF73.3
aF316.0
aF758.0
aF1074.0
aF35.8
aF375.0
aF359.0
aF201.0
aF96.0
aF605.0
asI504
(lp202
F728.0
aF1702.0
aF42.77
aF250.0
aF727.0
aF34.39
aF461.0
aF605.0
aF76.2
aF2167.0
aF63.74
aF268.0
aF742.0
aF1010.0
aF29.71
aF359.0
aF314.0
aF171.0
aF57.0
aF583.0
aF724.0
aF1628.0
aF44.47
aF216.0
aF589.0
aF36.67
aF382.0
aF549.0
aF69.58
aF2046.0
aF60.18
aF265.0
aF787.0
aF1052.0
aF30.94
aF391.0
aF412.0
aF131.0
aF91.0
aF617.0
asI508
(lp203
F832.0
aF1877.0
aF44.33
aF211.0
aF612.0
aF34.48
aF587.0
aF922.0
aF63.67
aF2462.0
aF76.94
aF439.0
aF723.0
aF1162.0
aF36.31
aF426.0
aF542.0
aF293.0
aF225.0
aF735.0
aF822.0
aF1881.0
aF43.7
aF231.0
aF603.0
aF38.31
aF607.0
aF877.0
aF69.21
aF2482.0
aF77.56
aF491.0
aF785.0
aF1276.0
aF39.88
aF461.0
aF602.0
aF275.0
aF86.0
aF796.0
asI509
(lp204
F853.0
aF1897.0
aF44.97
aF319.0
aF858.0
aF37.18
aF416.0
aF570.0
aF72.98
aF2441.0
aF71.79
aF309.0
aF716.0
aF1025.0
aF30.15
aF568.0
aF335.0
aF227.0
aF109.0
aF585.0
aF822.0
aF1757.0
aF46.78
aF201.0
aF581.0
aF34.6
aF456.0
aF651.0
aF70.05
aF2301.0
aF67.68
aF315.0
aF813.0
aF1128.0
aF33.18
aF468.0
aF428.0
aF178.0
aF123.0
aF576.0
asI513
(lp205
F843.0
aF1832.0
aF46.02
aF273.0
aF708.0
aF38.56
aF599.0
aF827.0
aF72.43
aF2558.0
aF75.24
aF371.0
aF890.0
aF1261.0
aF37.09
aF563.0
aF364.0
aF156.0
aF128.0
aF517.0
aF815.0
aF1996.0
aF40.83
aF234.0
aF662.0
aF35.35
aF363.0
aF511.0
aF71.04
aF2227.0
aF65.5
aF372.0
aF739.0
aF1111.0
aF32.68
aF457.0
aF351.0
aF173.0
aF113.0
aF697.0
asI514
(lp206
F1052.0
aF2137.0
aF49.23
aF287.0
aF767.0
aF37.42
aF601.0
aF835.0
aF71.98
aF2992.0
aF85.49
aF451.0
aF915.0
aF1366.0
aF39.03
aF568.0
aF473.0
aF216.0
aF194.0
aF644.0
aF984.0
aF2217.0
aF44.38
aF233.0
aF642.0
aF36.29
aF489.0
aF678.0
aF72.12
aF2690.0
aF76.86
aF430.0
aF762.0
aF1192.0
aF34.06
aF484.0
aF424.0
aF236.0
aF97.0
aF721.0
asI518
(lp207
F1017.0
aF2059.0
aF49.39
aF285.0
aF674.0
aF42.28
aF535.0
aF763.0
aF70.12
aF2854.0
aF77.14
aF419.0
aF858.0
aF1277.0
aF34.51
aF587.0
aF375.0
aF263.0
aF118.0
aF519.0
aF838.0
aF1976.0
aF42.41
aF232.0
aF683.0
aF33.97
aF300.0
aF407.0
aF73.71
aF2208.0
aF59.68
aF341.0
aF755.0
aF1096.0
aF29.62
aF424.0
aF552.0
aF150.0
aF119.0
aF697.0
asI519
(lp208
F896.0
aF2060.0
aF43.5
aF260.0
aF734.0
aF35.42
aF552.0
aF769.0
aF71.78
aF2604.0
aF74.4
aF430.0
aF835.0
aF1265.0
aF36.14
aF533.0
aF471.0
aF277.0
aF88.0
aF726.0
aF882.0
aF1971.0
aF44.75
aF233.0
aF657.0
aF35.46
aF551.0
aF789.0
aF69.84
aF2548.0
aF72.8
aF397.0
aF855.0
aF1252.0
aF35.77
aF480.0
aF535.0
aF206.0
aF130.0
aF693.0
asI521
(lp209
F791.0
aF1814.0
aF43.61
aF143.0
aF485.0
aF29.48
aF593.0
aF818.0
aF72.49
aF2318.0
aF68.18
aF377.0
aF800.0
aF1177.0
aF34.62
aF338.0
aF456.0
aF228.0
aF99.0
aF707.0
aF734.0
aF1782.0
aF41.19
aF204.0
aF599.0
aF34.06
aF592.0
aF805.0
aF73.54
aF2264.0
aF66.59
aF344.0
aF768.0
aF1112.0
aF32.71
aF382.0
aF460.0
aF187.0
aF117.0
aF678.0
asI522
(lp210
F738.0
aF1648.0
aF44.78
aF198.0
aF587.0
aF33.73
aF437.0
aF592.0
aF73.82
aF2111.0
aF65.97
aF272.0
aF697.0
aF969.0
aF30.28
aF400.0
aF434.0
aF179.0
aF89.0
aF585.0
aF767.0
aF1699.0
aF45.14
aF195.0
aF538.0
aF36.25
aF470.0
aF648.0
aF72.53
aF2199.0
aF68.72
aF331.0
aF720.0
aF1051.0
aF32.84
aF391.0
aF424.0
aF213.0
aF84.0
aF564.0
asI523
(lp211
F803.0
aF1828.0
aF43.93
aF166.0
aF505.0
aF32.87
aF459.0
aF687.0
aF66.81
aF2231.0
aF65.62
aF524.0
aF831.0
aF1355.0
aF39.85
aF485.0
aF424.0
aF234.0
aF146.0
aF503.0
aF717.0
aF1774.0
aF40.42
aF245.0
aF670.0
aF36.57
aF305.0
aF488.0
aF62.5
aF1984.0
aF58.35
aF326.0
aF631.0
aF957.0
aF28.15
aF426.0
aF392.0
aF197.0
aF103.0
aF619.0
asI527
(lp212
F925.0
aF1950.0
aF47.44
aF193.0
aF528.0
aF36.55
aF572.0
aF798.0
aF71.68
aF2615.0
aF74.71
aF419.0
aF783.0
aF1202.0
aF34.34
aF446.0
aF452.0
aF195.0
aF100.0
aF712.0
aF874.0
aF1899.0
aF46.02
aF199.0
aF560.0
aF35.54
aF597.0
aF810.0
aF73.7
aF2544.0
aF72.69
aF366.0
aF733.0
aF1099.0
aF31.4
aF412.0
aF453.0
aF203.0
aF120.0
aF698.0
asI528
(lp213
F737.0
aF1727.0
aF42.68
aF160.0
aF527.0
aF30.36
aF513.0
aF753.0
aF68.13
aF2147.0
aF69.26
aF381.0
aF683.0
aF1064.0
aF34.32
aF374.0
aF472.0
aF293.0
aF68.0
aF575.0
aF783.0
aF1698.0
aF46.11
aF262.0
aF701.0
aF37.38
aF428.0
aF633.0
aF67.61
aF2256.0
aF72.77
aF336.0
aF735.0
aF1071.0
aF34.55
aF468.0
aF504.0
aF192.0
aF113.0
aF601.0
asI529
(lp214
F972.0
aF2287.0
aF42.5
aF273.0
aF805.0
aF33.91
aF520.0
aF704.0
aF73.86
aF2737.0
aF70.18
aF420.0
aF850.0
aF1270.0
aF32.56
aF545.0
aF477.0
aF321.0
aF103.0
aF711.0
aF941.0
aF2109.0
aF44.62
aF287.0
aF785.0
aF36.56
aF535.0
aF758.0
aF70.58
aF2704.0
aF69.33
aF399.0
aF949.0
aF1348.0
aF34.56
aF532.0
aF601.0
aF209.0
aF156.0
aF691.0
asI534
(lp215
F705.0
aF1606.0
aF43.9
aF236.0
aF663.0
aF35.6
aF392.0
aF558.0
aF70.25
aF2038.0
aF65.74
aF308.0
aF729.0
aF1037.0
aF33.45
aF433.0
aF356.0
aF141.0
aF63.0
aF460.0
aF722.0
aF1649.0
aF43.78
aF189.0
aF534.0
aF35.39
aF312.0
aF465.0
aF67.1
aF1945.0
aF62.74
aF280.0
aF690.0
aF970.0
aF31.29
aF405.0
aF332.0
aF181.0
aF79.0
aF519.0
asI536
(lp216
F695.0
aF1642.0
aF42.33
aF243.0
aF639.0
aF38.03
aF481.0
aF710.0
aF67.75
aF2114.0
aF68.19
aF311.0
aF673.0
aF984.0
aF31.74
aF382.0
aF475.0
aF178.0
aF54.0
aF640.0
aF800.0
aF1679.0
aF47.65
aF232.0
aF569.0
aF40.77
aF525.0
aF744.0
aF70.56
aF2357.0
aF76.03
aF318.0
aF765.0
aF1083.0
aF34.94
aF447.0
aF442.0
aF191.0
aF96.0
aF652.0
asI539
(lp217
F767.0
aF1748.0
aF43.88
aF216.0
aF638.0
aF33.86
aF394.0
aF544.0
aF72.43
aF2144.0
aF63.06
aF337.0
aF731.0
aF1068.0
aF31.41
aF413.0
aF358.0
aF151.0
aF82.0
aF530.0
aF768.0
aF1747.0
aF43.96
aF235.0
aF644.0
aF36.49
aF355.0
aF509.0
aF69.74
aF2126.0
aF62.53
aF316.0
aF709.0
aF1025.0
aF30.15
aF482.0
aF367.0
aF159.0
aF127.0
aF592.0
asI540
(lp218
F644.0
aF1418.0
aF45.42
aF185.0
aF502.0
aF36.85
aF395.0
aF536.0
aF73.69
aF1868.0
aF66.71
aF223.0
aF609.0
aF832.0
aF29.71
aF381.0
aF387.0
aF172.0
aF65.0
aF506.0
aF674.0
aF1463.0
aF46.07
aF188.0
aF521.0
aF36.08
aF370.0
aF487.0
aF75.98
aF1906.0
aF68.07
aF251.0
aF625.0
aF876.0
aF31.29
aF414.0
aF386.0
aF179.0
aF98.0
aF499.0
asI541
(lp219
F787.0
aF1855.0
aF42.43
aF177.0
aF541.0
aF32.72
aF538.0
aF749.0
aF71.83
aF2289.0
aF69.36
aF404.0
aF774.0
aF1178.0
aF35.7
aF408.0
aF440.0
aF193.0
aF97.0
aF627.0
aF849.0
aF1844.0
aF46.04
aF253.0
aF681.0
aF37.15
aF491.0
aF704.0
aF69.74
aF2442.0
aF74.0
aF331.0
aF779.0
aF1110.0
aF33.64
aF542.0
aF397.0
aF212.0
aF120.0
aF639.0
asI545
(lp220
F886.0
aF1866.0
aF47.48
aF202.0
aF512.0
aF39.45
aF540.0
aF805.0
aF67.08
aF2514.0
aF73.94
aF484.0
aF875.0
aF1359.0
aF39.97
aF595.0
aF397.0
aF160.0
aF111.0
aF610.0
aF735.0
aF1850.0
aF39.73
aF199.0
aF610.0
aF32.62
aF404.0
aF598.0
aF67.56
aF2073.0
aF60.97
aF350.0
aF642.0
aF992.0
aF29.18
aF394.0
aF378.0
aF167.0
aF141.0
aF688.0
asI550
(lp221
F745.0
aF1697.0
aF43.9
aF211.0
aF600.0
aF35.17
aF468.0
aF645.0
aF72.56
aF2169.0
aF72.3
aF310.0
aF673.0
aF983.0
aF32.77
aF390.0
aF374.0
aF181.0
aF69.0
aF506.0
aF840.0
aF1774.0
aF47.35
aF195.0
aF562.0
aF34.7
aF355.0
aF522.0
aF68.01
aF2230.0
aF74.33
aF355.0
aF731.0
aF1086.0
aF36.2
aF434.0
aF399.0
aF166.0
aF94.0
aF566.0
asI551
(lp222
F800.0
aF1749.0
aF45.74
aF243.0
aF590.0
aF41.19
aF429.0
aF577.0
aF74.35
aF2272.0
aF71.0
aF347.0
aF761.0
aF1108.0
aF34.62
aF447.0
aF413.0
aF171.0
aF99.0
aF560.0
aF755.0
aF1751.0
aF43.12
aF231.0
aF664.0
aF34.79
aF451.0
aF643.0
aF70.14
aF2192.0
aF68.5
aF331.0
aF669.0
aF1000.0
aF31.25
aF404.0
aF367.0
aF220.0
aF114.0
aF594.0
asI553
(lp223
F733.0
aF1920.0
aF38.18
aF202.0
aF671.0
aF30.1
aF343.0
aF596.0
aF57.55
aF2011.0
aF62.84
aF434.0
aF794.0
aF1228.0
aF38.38
aF366.0
aF477.0
aF213.0
aF119.0
aF640.0
aF774.0
aF1816.0
aF42.62
aF202.0
aF610.0
aF33.11
aF492.0
aF787.0
aF62.52
aF2242.0
aF70.06
aF407.0
aF893.0
aF1300.0
aF40.62
aF407.0
aF458.0
aF228.0
aF155.0
aF551.0
asI554
(lp224
F788.0
aF1696.0
aF46.46
aF193.0
aF531.0
aF36.35
aF446.0
aF609.0
aF73.23
aF2215.0
aF69.22
aF315.0
aF790.0
aF1105.0
aF34.53
aF426.0
aF389.0
aF191.0
aF133.0
aF552.0
aF721.0
aF1701.0
aF42.39
aF148.0
aF449.0
aF32.96
aF427.0
aF597.0
aF71.52
aF2017.0
aF63.03
aF289.0
aF685.0
aF974.0
aF30.44
aF350.0
aF385.0
aF181.0
aF125.0
aF558.0
asI556
(lp225
F854.0
aF2012.0
aF42.45
aF212.0
aF673.0
aF31.5
aF506.0
aF756.0
aF66.93
aF2426.0
aF75.81
aF464.0
aF767.0
aF1231.0
aF38.47
aF399.0
aF407.0
aF250.0
aF142.0
aF543.0
aF897.0
aF2001.0
aF44.83
aF191.0
aF584.0
aF32.71
aF426.0
aF601.0
aF70.88
aF2411.0
aF75.34
aF422.0
aF785.0
aF1207.0
aF37.72
aF490.0
aF451.0
aF196.0
aF131.0
aF613.0
asI559
(lp226
F875.0
aF1957.0
aF44.71
aF235.0
aF645.0
aF36.43
aF481.0
aF673.0
aF71.47
aF2466.0
aF72.53
aF380.0
aF827.0
aF1207.0
aF35.5
aF538.0
aF354.0
aF211.0
aF141.0
aF605.0
aF770.0
aF1858.0
aF41.44
aF169.0
aF518.0
aF32.63
aF394.0
aF565.0
aF69.73
aF2103.0
aF61.85
aF349.0
aF794.0
aF1143.0
aF33.62
aF427.0
aF478.0
aF198.0
aF110.0
aF633.0
asI562
(lp227
F847.0
aF1979.0
aF42.8
aF175.0
aF508.0
aF34.45
aF426.0
aF697.0
aF61.12
aF2295.0
aF71.72
aF520.0
aF840.0
aF1360.0
aF42.5
aF498.0
aF400.0
aF161.0
aF112.0
aF665.0
aF716.0
aF1710.0
aF41.87
aF182.0
aF541.0
aF33.64
aF543.0
aF801.0
aF67.79
aF2157.0
aF67.41
aF303.0
aF760.0
aF1063.0
aF33.22
aF377.0
aF422.0
aF167.0
aF99.0
aF643.0
asI563
(lp228
F598.0
aF1560.0
aF38.33
aF134.0
aF451.0
aF29.71
aF404.0
aF645.0
aF62.64
aF1734.0
aF59.79
aF353.0
aF668.0
aF1021.0
aF35.21
aF294.0
aF475.0
aF229.0
aF88.0
aF561.0
aF717.0
aF1608.0
aF44.59
aF218.0
aF607.0
aF35.91
aF413.0
aF639.0
aF64.63
aF2065.0
aF71.21
aF366.0
aF749.0
aF1115.0
aF38.45
aF450.0
aF450.0
aF231.0
aF109.0
aF562.0
asI572
(lp229
F828.0
aF1960.0
aF42.24
aF243.0
aF722.0
aF33.66
aF417.0
aF595.0
aF70.08
aF2316.0
aF68.12
aF386.0
aF806.0
aF1192.0
aF35.06
aF415.0
aF416.0
aF223.0
aF131.0
aF606.0
aF799.0
aF1886.0
aF42.36
aF198.0
aF657.0
aF30.14
aF471.0
aF697.0
aF67.58
aF2267.0
aF66.68
aF399.0
aF849.0
aF1248.0
aF36.71
aF445.0
aF474.0
aF199.0
aF110.0
aF617.0
asI574
(lp230
F725.0
aF1696.0
aF42.75
aF168.0
aF513.0
aF32.75
aF530.0
aF733.0
aF72.31
aF2148.0
aF67.12
aF351.0
aF731.0
aF1082.0
aF33.81
aF411.0
aF393.0
aF217.0
aF76.0
aF603.0
aF706.0
aF1606.0
aF43.96
aF244.0
aF645.0
aF37.83
aF493.0
aF692.0
aF71.24
aF2149.0
aF67.16
aF279.0
aF729.0
aF1008.0
aF31.5
aF409.0
aF434.0
aF188.0
aF101.0
aF647.0
asI575
(lp231
F922.0
aF2007.0
aF45.94
aF287.0
aF734.0
aF39.1
aF446.0
aF649.0
aF68.72
aF2577.0
aF69.65
aF344.0
aF878.0
aF1222.0
aF33.03
aF548.0
aF383.0
aF220.0
aF155.0
aF587.0
aF832.0
aF2053.0
aF40.53
aF188.0
aF614.0
aF30.62
aF413.0
aF601.0
aF68.72
aF2265.0
aF61.22
aF441.0
aF859.0
aF1300.0
aF35.14
aF416.0
aF457.0
aF172.0
aF97.0
aF655.0
asI576
(lp232
F894.0
aF1916.0
aF46.66
aF263.0
aF672.0
aF39.14
aF435.0
aF670.0
aF64.93
aF2486.0
aF73.12
aF351.0
aF870.0
aF1221.0
aF35.91
aF481.0
aF469.0
aF205.0
aF151.0
aF598.0
aF832.0
aF2045.0
aF40.68
aF220.0
aF671.0
aF32.79
aF456.0
aF679.0
aF67.16
aF2340.0
aF68.82
aF458.0
aF804.0
aF1262.0
aF37.12
aF470.0
aF436.0
aF246.0
aF96.0
aF609.0
asI579
(lp233
F752.0
aF1792.0
aF41.96
aF215.0
aF603.0
aF35.66
aF434.0
aF634.0
aF68.45
aF2153.0
aF67.28
aF395.0
aF729.0
aF1124.0
aF35.12
aF436.0
aF422.0
aF241.0
aF66.0
aF718.0
aF675.0
aF1612.0
aF41.87
aF208.0
aF614.0
aF33.88
aF537.0
aF801.0
aF67.04
aF2095.0
aF65.47
aF354.0
aF754.0
aF1108.0
aF34.62
aF396.0
aF487.0
aF155.0
aF92.0
aF588.0
asI587
(lp234
F783.0
aF1778.0
aF44.04
aF175.0
aF509.0
aF34.38
aF381.0
aF563.0
aF67.67
aF2122.0
aF66.31
aF349.0
aF713.0
aF1062.0
aF33.19
aF434.0
aF389.0
aF252.0
aF143.0
aF634.0
aF667.0
aF1641.0
aF40.65
aF227.0
aF657.0
aF34.55
aF540.0
aF737.0
aF73.27
aF2101.0
aF65.66
aF356.0
aF740.0
aF1096.0
aF34.25
aF384.0
aF450.0
aF201.0
aF125.0
aF530.0
asI590
(lp235
F672.0
aF1565.0
aF42.94
aF165.0
aF478.0
aF34.52
aF413.0
aF588.0
aF70.24
aF1922.0
aF66.28
aF322.0
aF636.0
aF958.0
aF33.03
aF344.0
aF449.0
aF224.0
aF89.0
aF574.0
aF696.0
aF1551.0
aF44.87
aF190.0
aF557.0
aF34.11
aF435.0
aF624.0
aF69.71
aF2017.0
aF69.55
aF324.0
aF651.0
aF975.0
aF33.62
aF374.0
aF433.0
aF213.0
aF102.0
aF528.0
asI14927
(lp236
F944.0
aF2045.0
aF46.16
aF327.0
aF864.0
aF37.85
aF575.0
aF781.0
aF73.62
aF2790.0
aF79.71
aF451.0
aF807.0
aF1258.0
aF35.94
aF569.0
aF481.0
aF338.0
aF118.0
aF729.0
aF721.0
aF1764.0
aF40.87
aF183.0
aF545.0
aF33.58
aF553.0
aF815.0
aF67.85
aF2178.0
aF62.23
aF382.0
aF755.0
aF1137.0
aF32.49
aF386.0
aF665.0
aF240.0
aF154.0
aF718.0
asI596
(lp237
F744.0
aF1632.0
aF45.59
aF169.0
aF481.0
aF35.14
aF499.0
aF714.0
aF69.89
aF2156.0
aF69.55
aF339.0
aF770.0
aF1109.0
aF35.77
aF398.0
aF459.0
aF156.0
aF106.0
aF562.0
aF773.0
aF1801.0
aF42.92
aF191.0
aF583.0
aF32.76
aF432.0
aF610.0
aF70.82
aF2169.0
aF69.97
aF352.0
aF666.0
aF1018.0
aF32.84
aF422.0
aF359.0
aF227.0
aF91.0
aF637.0
asI599
(lp238
F673.0
aF1685.0
aF39.94
aF209.0
aF673.0
aF31.05
aF447.0
aF675.0
aF66.22
aF2002.0
aF66.73
aF363.0
aF626.0
aF989.0
aF32.97
aF349.0
aF399.0
aF234.0
aF72.0
aF641.0
aF688.0
aF1537.0
aF44.76
aF137.0
aF423.0
aF32.39
aF477.0
aF699.0
aF68.24
aF1990.0
aF66.33
aF349.0
aF765.0
aF1114.0
aF37.13
aF382.0
aF499.0
aF180.0
aF93.0
aF618.0
asI600
(lp239
F684.0
aF1588.0
aF43.07
aF170.0
aF511.0
aF33.27
aF419.0
aF576.0
aF72.74
aF1957.0
aF65.23
aF291.0
aF659.0
aF950.0
aF31.67
aF402.0
aF463.0
aF168.0
aF92.0
aF645.0
aF765.0
aF1626.0
aF47.05
aF198.0
aF510.0
aF38.82
aF459.0
aF703.0
aF65.29
aF2187.0
aF72.9
aF346.0
aF692.0
aF1038.0
aF34.6
aF447.0
aF409.0
aF220.0
aF118.0
aF561.0
asI603
(lp240
F807.0
aF1773.0
aF45.52
aF143.0
aF427.0
aF33.49
aF556.0
aF783.0
aF71.01
aF2313.0
aF70.09
aF354.0
aF714.0
aF1068.0
aF32.36
aF417.0
aF408.0
aF266.0
aF94.0
aF626.0
aF739.0
aF1703.0
aF43.39
aF253.0
aF681.0
aF37.15
aF480.0
aF684.0
aF70.18
aF2211.0
aF67.0
aF354.0
aF735.0
aF1089.0
aF33.0
aF492.0
aF530.0
aF202.0
aF129.0
aF678.0
asI606
(lp241
F745.0
aF1795.0
aF41.5
aF207.0
aF632.0
aF32.75
aF432.0
aF611.0
aF70.7
aF2129.0
aF64.52
aF323.0
aF745.0
aF1068.0
aF32.36
aF412.0
aF363.0
aF168.0
aF181.0
aF531.0
aF811.0
aF1859.0
aF43.63
aF223.0
aF607.0
aF36.74
aF456.0
aF647.0
aF70.48
aF2301.0
aF69.73
aF396.0
aF811.0
aF1207.0
aF36.58
aF510.0
aF354.0
aF186.0
aF112.0
aF559.0
asI609
(lp242
F715.0
aF1638.0
aF43.65
aF170.0
aF521.0
aF32.63
aF353.0
aF538.0
aF65.61
aF1953.0
aF63.0
aF292.0
aF686.0
aF978.0
aF31.55
aF421.0
aF414.0
aF198.0
aF109.0
aF589.0
aF680.0
aF1568.0
aF43.37
aF118.0
aF350.0
aF33.71
aF455.0
aF624.0
aF72.92
aF1933.0
aF62.35
aF295.0
aF729.0
aF1024.0
aF33.03
aF320.0
aF431.0
aF187.0
aF117.0
aF514.0
asI610
(lp243
F946.0
aF1951.0
aF48.49
aF291.0
aF746.0
aF39.01
aF501.0
aF660.0
aF75.91
aF2684.0
aF78.94
aF361.0
aF818.0
aF1179.0
aF34.68
aF561.0
aF381.0
aF243.0
aF112.0
aF598.0
aF809.0
aF1834.0
aF44.11
aF169.0
aF468.0
aF36.11
aF466.0
aF674.0
aF69.14
aF2253.0
aF66.26
aF321.0
aF721.0
aF1042.0
aF30.65
aF352.0
aF462.0
aF192.0
aF94.0
aF635.0
asI617
(lp244
F713.0
aF1782.0
aF40.01
aF197.0
aF573.0
aF34.38
aF446.0
aF693.0
aF64.36
aF2069.0
aF60.85
aF384.0
aF825.0
aF1209.0
aF35.56
aF383.0
aF511.0
aF263.0
aF154.0
aF662.0
aF683.0
aF1818.0
aF37.57
aF175.0
aF572.0
aF30.59
aF501.0
aF765.0
aF65.49
aF2042.0
aF60.06
aF431.0
aF812.0
aF1243.0
aF36.56
aF359.0
aF484.0
aF243.0
aF132.0
aF660.0
asI624
(lp245
F769.0
aF1747.0
aF44.02
aF185.0
aF624.0
aF29.65
aF438.0
aF663.0
aF66.06
aF2161.0
aF69.71
aF382.0
aF774.0
aF1156.0
aF37.29
aF538.0
aF447.0
aF245.0
aF69.0
aF634.0
aF720.0
aF1664.0
aF43.27
aF165.0
aF537.0
aF30.73
aF444.0
aF654.0
aF67.89
aF2049.0
aF66.1
aF293.0
aF730.0
aF1023.0
aF33.0
aF440.0
aF461.0
aF176.0
aF79.0
aF632.0
asI625
(lp246
F627.0
aF1464.0
aF42.83
aF275.0
aF776.0
aF35.44
aF351.0
aF520.0
aF67.5
aF1880.0
aF60.65
aF190.0
aF650.0
aF840.0
aF27.1
aF409.0
aF418.0
aF182.0
aF49.0
aF523.0
aF722.0
aF1672.0
aF43.18
aF247.0
aF669.0
aF36.92
aF381.0
aF540.0
aF70.56
aF2072.0
aF66.84
aF380.0
aF741.0
aF1121.0
aF36.16
aF370.0
aF401.0
aF206.0
aF82.0
aF549.0
asI626
(lp247
F991.0
aF2141.0
aF46.29
aF223.0
aF639.0
aF34.9
aF455.0
aF653.0
aF69.68
aF2660.0
aF71.89
aF472.0
aF924.0
aF1396.0
aF37.73
aF499.0
aF402.0
aF227.0
aF170.0
aF542.0
aF802.0
aF2027.0
aF39.57
aF194.0
aF608.0
aF31.91
aF394.0
aF547.0
aF72.03
aF2192.0
aF59.24
aF381.0
aF765.0
aF1146.0
aF30.97
aF402.0
aF461.0
aF186.0
aF100.0
aF619.0
asI627
(lp248
F641.0
aF1519.0
aF42.2
aF163.0
aF492.0
aF33.13
aF381.0
aF561.0
aF67.91
aF1826.0
aF60.87
aF251.0
aF620.0
aF871.0
aF29.03
aF338.0
aF440.0
aF155.0
aF87.0
aF589.0
aF735.0
aF1594.0
aF46.11
aF151.0
aF453.0
aF33.33
aF493.0
aF692.0
aF71.24
aF2114.0
aF70.47
aF345.0
aF733.0
aF1078.0
aF35.93
aF392.0
aF400.0
aF230.0
aF95.0
aF532.0
asI629
(lp249
F828.0
aF1889.0
aF43.83
aF227.0
aF674.0
aF33.68
aF501.0
aF728.0
aF68.82
aF2384.0
aF70.12
aF368.0
aF934.0
aF1302.0
aF38.29
aF430.0
aF493.0
aF182.0
aF83.0
aF663.0
aF844.0
aF2018.0
aF41.82
aF234.0
aF731.0
aF32.01
aF479.0
aF695.0
aF68.92
aF2401.0
aF70.62
aF364.0
aF824.0
aF1188.0
aF34.94
aF440.0
aF389.0
aF223.0
aF132.0
aF636.0
asI2678
(lp250
F627.0
aF1610.0
aF38.94
aF191.0
aF556.0
aF34.35
aF405.0
aF646.0
aF62.69
aF1850.0
aF59.68
aF299.0
aF688.0
aF987.0
aF31.84
aF357.0
aF518.0
aF234.0
aF67.0
aF649.0
aF728.0
aF1576.0
aF46.19
aF195.0
aF526.0
aF37.07
aF570.0
aF873.0
aF65.29
aF2221.0
aF71.65
aF316.0
aF811.0
aF1127.0
aF36.35
aF466.0
aF479.0
aF244.0
aF127.0
aF577.0
asI631
(lp251
F909.0
aF2112.0
aF43.04
aF273.0
aF777.0
aF35.14
aF718.0
aF989.0
aF72.6
aF2809.0
aF73.92
aF499.0
aF880.0
aF1379.0
aF36.29
aF487.0
aF532.0
aF275.0
aF116.0
aF787.0
aF899.0
aF2012.0
aF44.68
aF223.0
aF628.0
aF35.51
aF669.0
aF907.0
aF73.76
aF2690.0
aF70.79
aF367.0
aF843.0
aF1210.0
aF31.84
aF460.0
aF546.0
aF253.0
aF128.0
aF820.0
asI632
(lp252
F640.0
aF1562.0
aF40.97
aF166.0
aF534.0
aF31.09
aF372.0
aF563.0
aF66.07
aF1818.0
aF60.6
aF314.0
aF687.0
aF1001.0
aF33.37
aF316.0
aF448.0
aF217.0
aF105.0
aF572.0
aF611.0
aF1517.0
aF40.28
aF123.0
aF390.0
aF31.54
aF463.0
aF682.0
aF67.89
aF1808.0
aF60.27
aF324.0
aF708.0
aF1032.0
aF34.4
aF311.0
aF457.0
aF184.0
aF105.0
aF529.0
asI635
(lp253
F759.0
aF1838.0
aF41.29
aF187.0
aF611.0
aF30.61
aF387.0
aF576.0
aF67.19
aF2092.0
aF67.48
aF348.0
aF752.0
aF1100.0
aF35.48
aF422.0
aF381.0
aF227.0
aF110.0
aF588.0
aF722.0
aF1729.0
aF41.76
aF160.0
aF509.0
aF31.43
aF435.0
aF664.0
aF65.51
aF2039.0
aF65.77
aF353.0
aF807.0
aF1160.0
aF37.42
aF366.0
aF447.0
aF189.0
aF139.0
aF531.0
asI639
(lp254
F762.0
aF1841.0
aF41.39
aF160.0
aF479.0
aF33.4
aF419.0
aF617.0
aF67.91
aF2103.0
aF67.84
aF433.0
aF750.0
aF1183.0
aF38.16
aF378.0
aF444.0
aF205.0
aF116.0
aF516.0
aF785.0
aF1816.0
aF43.23
aF200.0
aF599.0
aF33.39
aF399.0
aF566.0
aF70.49
aF2169.0
aF69.97
aF354.0
aF735.0
aF1089.0
aF35.13
aF403.0
aF403.0
aF254.0
aF146.0
aF554.0
asI646
(lp255
F684.0
aF1618.0
aF42.27
aF158.0
aF475.0
aF33.26
aF443.0
aF666.0
aF66.52
aF1969.0
aF70.32
aF375.0
aF649.0
aF1024.0
aF36.57
aF341.0
aF396.0
aF196.0
aF138.0
aF506.0
aF739.0
aF1616.0
aF45.73
aF185.0
aF490.0
aF37.76
aF378.0
aF573.0
aF65.97
aF2041.0
aF72.89
aF347.0
aF674.0
aF1021.0
aF36.46
aF367.0
aF410.0
aF184.0
aF108.0
aF562.0
asI647
(lp256
F764.0
aF1780.0
aF42.92
aF178.0
aF559.0
aF31.84
aF413.0
aF612.0
aF67.48
aF2119.0
aF66.22
aF398.0
aF704.0
aF1102.0
aF34.44
aF385.0
aF521.0
aF193.0
aF116.0
aF655.0
aF769.0
aF1732.0
aF44.4
aF203.0
aF601.0
aF33.78
aF535.0
aF766.0
aF69.84
aF2276.0
aF71.12
aF361.0
aF704.0
aF1065.0
aF33.28
aF419.0
aF449.0
aF241.0
aF114.0
aF587.0
asI648
(lp257
F741.0
aF1878.0
aF39.46
aF207.0
aF662.0
aF31.27
aF338.0
aF510.0
aF66.27
aF2027.0
aF67.57
aF441.0
aF703.0
aF1144.0
aF38.13
aF327.0
aF402.0
aF208.0
aF186.0
aF562.0
aF716.0
aF1690.0
aF42.37
aF179.0
aF511.0
aF35.03
aF459.0
aF667.0
aF68.82
aF2070.0
aF69.0
aF377.0
aF762.0
aF1139.0
aF37.97
aF386.0
aF445.0
aF172.0
aF98.0
aF470.0
asI649
(lp258
F884.0
aF1901.0
aF46.5
aF276.0
aF672.0
aF41.07
aF489.0
aF672.0
aF72.77
aF2533.0
aF81.71
aF377.0
aF718.0
aF1095.0
aF35.32
aF471.0
aF308.0
aF189.0
aF82.0
aF567.0
aF836.0
aF1773.0
aF47.15
aF201.0
aF499.0
aF40.28
aF412.0
aF587.0
aF70.19
aF2285.0
aF73.71
aF331.0
aF745.0
aF1076.0
aF34.71
aF391.0
aF429.0
aF154.0
aF95.0
aF608.0
asI650
(lp259
F939.0
aF2063.0
aF45.52
aF252.0
aF723.0
aF34.85
aF502.0
aF751.0
aF66.84
aF2632.0
aF79.76
aF374.0
aF894.0
aF1268.0
aF38.42
aF487.0
aF417.0
aF221.0
aF94.0
aF577.0
aF924.0
aF2089.0
aF44.23
aF197.0
aF604.0
aF32.62
aF462.0
aF670.0
aF68.96
aF2507.0
aF75.97
aF392.0
aF891.0
aF1283.0
aF38.88
aF482.0
aF442.0
aF198.0
aF89.0
aF611.0
asI651
(lp260
F711.0
aF1710.0
aF41.58
aF159.0
aF524.0
aF30.34
aF463.0
aF652.0
aF71.01
aF2044.0
aF61.94
aF405.0
aF764.0
aF1169.0
aF35.42
aF407.0
aF496.0
aF162.0
aF122.0
aF632.0
aF766.0
aF1797.0
aF42.63
aF180.0
aF524.0
aF34.35
aF484.0
aF698.0
aF69.34
aF2196.0
aF66.55
aF376.0
aF703.0
aF1079.0
aF32.7
aF449.0
aF346.0
aF250.0
aF135.0
aF600.0
asI654
(lp261
F731.0
aF1678.0
aF43.56
aF163.0
aF478.0
aF34.1
aF492.0
aF794.0
aF61.96
aF2117.0
aF66.16
aF349.0
aF763.0
aF1112.0
aF34.75
aF389.0
aF463.0
aF146.0
aF120.0
aF677.0
aF777.0
aF1777.0
aF43.73
aF170.0
aF506.0
aF33.6
aF557.0
aF776.0
aF71.78
aF2281.0
aF71.28
aF349.0
aF771.0
aF1120.0
aF35.0
aF389.0
aF386.0
aF208.0
aF109.0
aF679.0
asI655
(lp262
F705.0
aF1614.0
aF43.68
aF181.0
aF528.0
aF34.28
aF440.0
aF610.0
aF72.13
aF2031.0
aF70.03
aF326.0
aF658.0
aF984.0
aF33.93
aF415.0
aF389.0
aF181.0
aF112.0
aF570.0
aF705.0
aF1573.0
aF44.82
aF158.0
aF446.0
aF35.43
aF435.0
aF651.0
aF66.82
aF2003.0
aF69.07
aF335.0
aF674.0
aF1009.0
aF34.79
aF348.0
aF413.0
aF172.0
aF118.0
aF551.0
asI657
(lp263
F813.0
aF1832.0
aF44.38
aF204.0
aF577.0
aF35.36
aF422.0
aF648.0
aF65.12
aF2252.0
aF66.24
aF340.0
aF813.0
aF1153.0
aF33.91
aF402.0
aF390.0
aF199.0
aF104.0
aF589.0
aF741.0
aF1810.0
aF40.94
aF191.0
aF570.0
aF33.51
aF458.0
aF653.0
aF70.14
aF2131.0
aF62.68
aF324.0
aF798.0
aF1122.0
aF33.0
aF342.0
aF404.0
aF168.0
aF99.0
aF599.0
asI659
(lp264
F691.0
aF1618.0
aF42.71
aF141.0
aF439.0
aF32.12
aF430.0
aF621.0
aF69.24
aF1953.0
aF61.03
aF316.0
aF743.0
aF1059.0
aF33.09
aF365.0
aF456.0
aF179.0
aF82.0
aF634.0
aF708.0
aF1627.0
aF43.52
aF171.0
aF468.0
aF36.54
aF492.0
aF690.0
aF71.3
aF2079.0
aF64.97
aF292.0
aF724.0
aF1016.0
aF31.75
aF364.0
aF394.0
aF190.0
aF76.0
aF591.0
asI660
(lp265
F668.0
aF1583.0
aF42.2
aF197.0
aF589.0
aF33.45
aF346.0
aF517.0
aF66.92
aF1879.0
aF64.79
aF246.0
aF649.0
aF895.0
aF30.86
aF386.0
aF489.0
aF167.0
aF83.0
aF589.0
aF801.0
aF1709.0
aF46.87
aF152.0
aF450.0
aF33.78
aF494.0
aF700.0
aF70.57
aF2248.0
aF77.52
aF365.0
aF754.0
aF1119.0
aF38.59
aF469.0
aF390.0
aF250.0
aF90.0
aF483.0
asI2711
(lp266
F758.0
aF1741.0
aF43.54
aF203.0
aF616.0
aF32.95
aF489.0
aF740.0
aF66.08
aF2208.0
aF64.94
aF350.0
aF737.0
aF1087.0
aF31.97
aF404.0
aF569.0
aF201.0
aF106.0
aF697.0
aF866.0
aF1981.0
aF43.72
aF178.0
aF553.0
aF32.19
aF521.0
aF780.0
aF66.79
aF2431.0
aF71.5
aF502.0
aF767.0
aF1269.0
aF37.32
aF425.0
aF498.0
aF248.0
aF141.0
aF673.0
asI664
(lp267
F825.0
aF1821.0
aF45.3
aF172.0
aF468.0
aF36.75
aF549.0
aF752.0
aF73.01
aF2371.0
aF74.09
aF439.0
aF789.0
aF1228.0
aF38.38
aF380.0
aF379.0
aF178.0
aF115.0
aF614.0
aF711.0
aF1700.0
aF41.82
aF220.0
aF618.0
aF35.6
aF451.0
aF675.0
aF66.81
aF2093.0
aF65.41
aF319.0
aF666.0
aF985.0
aF30.78
aF375.0
aF433.0
aF166.0
aF103.0
aF655.0
asI665
(lp268
F610.0
aF1597.0
aF38.2
aF153.0
aF517.0
aF29.59
aF328.0
aF550.0
aF59.64
aF1701.0
aF56.7
aF318.0
aF670.0
aF988.0
aF32.93
aF350.0
aF498.0
aF165.0
aF100.0
aF507.0
aF773.0
aF1754.0
aF44.07
aF181.0
aF582.0
aF31.1
aF435.0
aF650.0
aF66.92
aF2162.0
aF72.07
aF419.0
aF792.0
aF1211.0
aF40.37
aF435.0
aF396.0
aF270.0
aF101.0
aF528.0
asI667
(lp269
F736.0
aF1572.0
aF46.82
aF97.0
aF284.0
aF34.15
aF508.0
aF716.0
aF70.95
aF2077.0
aF69.23
aF340.0
aF671.0
aF1011.0
aF33.7
aF423.0
aF479.0
aF161.0
aF135.0
aF651.0
aF719.0
aF1598.0
aF44.99
aF195.0
aF521.0
aF37.43
aF559.0
aF801.0
aF69.79
aF2192.0
aF73.07
aF334.0
aF596.0
aF930.0
aF31.0
aF355.0
aF397.0
aF225.0
aF90.0
aF646.0
asI669
(lp270
F842.0
aF1858.0
aF45.32
aF242.0
aF644.0
aF37.58
aF518.0
aF710.0
aF72.96
aF2444.0
aF69.83
aF373.0
aF788.0
aF1161.0
aF33.17
aF464.0
aF362.0
aF171.0
aF103.0
aF607.0
aF804.0
aF1792.0
aF44.87
aF179.0
aF515.0
aF34.76
aF422.0
aF609.0
aF69.29
aF2209.0
aF63.11
aF290.0
aF750.0
aF1040.0
aF29.71
aF373.0
aF386.0
aF195.0
aF120.0
aF631.0
asI670
(lp271
F866.0
aF1930.0
aF44.87
aF185.0
aF579.0
aF31.95
aF589.0
aF877.0
aF67.16
aF2506.0
aF78.31
aF400.0
aF794.0
aF1194.0
aF37.31
aF440.0
aF490.0
aF247.0
aF104.0
aF699.0
aF872.0
aF1901.0
aF45.87
aF204.0
aF617.0
aF33.06
aF562.0
aF822.0
aF68.37
aF2510.0
aF78.44
aF372.0
aF828.0
aF1200.0
aF37.5
aF477.0
aF545.0
aF212.0
aF80.0
aF725.0
asI671
(lp272
F715.0
aF1639.0
aF43.62
aF151.0
aF435.0
aF34.71
aF474.0
aF714.0
aF66.39
aF2055.0
aF70.86
aF381.0
aF704.0
aF1085.0
aF37.41
aF295.0
aF447.0
aF165.0
aF126.0
aF618.0
aF696.0
aF1593.0
aF43.69
aF169.0
aF487.0
aF34.7
aF506.0
aF717.0
aF70.57
aF2067.0
aF71.28
aF317.0
aF666.0
aF983.0
aF33.9
aF310.0
aF421.0
aF183.0
aF113.0
aF625.0
asI674
(lp273
F722.0
aF1676.0
aF43.08
aF198.0
aF556.0
aF35.61
aF416.0
aF632.0
aF65.82
aF2058.0
aF66.39
aF341.0
aF715.0
aF1056.0
aF34.06
aF360.0
aF416.0
aF149.0
aF106.0
aF572.0
aF704.0
aF1633.0
aF43.11
aF196.0
aF538.0
aF36.43
aF416.0
aF593.0
aF70.15
aF2020.0
aF65.16
aF301.0
aF706.0
aF1007.0
aF32.48
aF362.0
aF437.0
aF184.0
aF82.0
aF566.0
asI676
(lp274
F703.0
aF1536.0
aF45.77
aF112.0
aF360.0
aF31.11
aF408.0
aF566.0
aF72.08
aF1926.0
aF66.41
aF358.0
aF671.0
aF1029.0
aF35.48
aF424.0
aF404.0
aF200.0
aF40.0
aF511.0
aF595.0
aF1420.0
aF41.9
aF128.0
aF451.0
aF28.38
aF325.0
aF490.0
aF66.33
aF1643.0
aF56.66
aF248.0
aF568.0
aF816.0
aF28.14
aF307.0
aF444.0
aF182.0
aF84.0
aF554.0
asI678
(lp275
F701.0
aF1641.0
aF42.72
aF164.0
aF552.0
aF29.71
aF420.0
aF677.0
aF62.04
aF1986.0
aF64.06
aF365.0
aF660.0
aF1025.0
aF33.06
aF295.0
aF501.0
aF235.0
aF90.0
aF660.0
aF737.0
aF1666.0
aF44.24
aF237.0
aF644.0
aF36.8
aF517.0
aF751.0
aF68.84
aF2228.0
aF71.87
aF380.0
aF701.0
aF1081.0
aF34.87
aF444.0
aF450.0
aF208.0
aF117.0
aF622.0
asI683
(lp276
F679.0
aF1777.0
aF38.21
aF221.0
aF640.0
aF34.53
aF372.0
aF565.0
aF65.84
aF1951.0
aF60.97
aF375.0
aF793.0
aF1168.0
aF36.5
aF304.0
aF395.0
aF172.0
aF89.0
aF569.0
aF664.0
aF1704.0
aF38.97
aF202.0
aF656.0
aF30.79
aF404.0
aF576.0
aF70.14
aF1934.0
aF60.44
aF353.0
aF826.0
aF1179.0
aF36.84
aF357.0
aF430.0
aF200.0
aF92.0
aF580.0
asI688
(lp277
F936.0
aF1983.0
aF47.2
aF222.0
aF628.0
aF35.35
aF474.0
aF713.0
aF66.48
aF2568.0
aF73.37
aF429.0
aF879.0
aF1308.0
aF37.37
aF566.0
aF433.0
aF304.0
aF231.0
aF544.0
aF788.0
aF2000.0
aF39.4
aF244.0
aF775.0
aF31.48
aF396.0
aF594.0
aF66.67
aF2216.0
aF63.31
aF442.0
aF740.0
aF1182.0
aF33.77
aF499.0
aF490.0
aF224.0
aF100.0
aF615.0
asI690
(lp278
F868.0
aF1943.0
aF44.67
aF206.0
aF583.0
aF35.33
aF458.0
aF656.0
aF69.82
aF2400.0
aF70.59
aF374.0
aF844.0
aF1218.0
aF35.82
aF511.0
aF368.0
aF231.0
aF156.0
aF538.0
aF790.0
aF1908.0
aF41.4
aF187.0
aF523.0
aF35.76
aF357.0
aF504.0
aF70.83
aF2124.0
aF62.47
aF340.0
aF792.0
aF1132.0
aF33.29
aF389.0
aF448.0
aF172.0
aF105.0
aF579.0
asI691
(lp279
F676.0
aF1587.0
aF42.6
aF216.0
aF586.0
aF36.86
aF476.0
aF625.0
aF76.16
aF2044.0
aF68.13
aF331.0
aF663.0
aF994.0
aF33.13
aF373.0
aF451.0
aF197.0
aF104.0
aF559.0
aF727.0
aF1652.0
aF44.01
aF186.0
aF555.0
aF33.51
aF400.0
aF591.0
aF67.68
aF2040.0
aF68.0
aF363.0
aF646.0
aF1009.0
aF33.63
aF397.0
aF424.0
aF169.0
aF99.0
aF548.0
asI692
(lp280
F890.0
aF1859.0
aF47.88
aF152.0
aF437.0
aF34.78
aF530.0
aF799.0
aF66.33
aF2462.0
aF74.61
aF390.0
aF824.0
aF1214.0
aF36.79
aF462.0
aF536.0
aF279.0
aF72.0
aF666.0
aF782.0
aF1815.0
aF43.09
aF200.0
aF590.0
aF33.9
aF543.0
aF787.0
aF69.0
aF2307.0
aF69.91
aF338.0
aF717.0
aF1055.0
aF31.97
aF448.0
aF536.0
aF231.0
aF113.0
aF672.0
asI693
(lp281
F761.0
aF1827.0
aF41.65
aF272.0
aF846.0
aF32.15
aF480.0
aF740.0
aF64.86
aF2274.0
aF71.06
aF373.0
aF859.0
aF1232.0
aF38.5
aF447.0
aF484.0
aF163.0
aF47.0
aF592.0
aF829.0
aF1887.0
aF43.93
aF301.0
aF871.0
aF34.56
aF421.0
aF615.0
aF68.46
aF2380.0
aF74.38
aF301.0
aF830.0
aF1131.0
aF35.34
aF520.0
aF418.0
aF245.0
aF84.0
aF649.0
asI694
(lp282
F837.0
aF1941.0
aF43.12
aF175.0
aF583.0
aF30.02
aF527.0
aF770.0
aF68.44
aF2376.0
aF69.88
aF464.0
aF815.0
aF1279.0
aF37.62
aF443.0
aF454.0
aF250.0
aF126.0
aF662.0
aF785.0
aF1878.0
aF41.8
aF230.0
aF692.0
aF33.24
aF496.0
aF704.0
aF70.45
aF2296.0
aF67.53
aF388.0
aF764.0
aF1152.0
aF33.88
aF414.0
aF476.0
aF228.0
aF140.0
aF649.0
asI695
(lp283
F777.0
aF1836.0
aF42.32
aF181.0
aF555.0
aF32.61
aF529.0
aF715.0
aF73.99
aF2264.0
aF68.61
aF358.0
aF730.0
aF1088.0
aF32.97
aF362.0
aF504.0
aF221.0
aF87.0
aF675.0
aF895.0
aF1884.0
aF47.51
aF174.0
aF529.0
aF32.89
aF490.0
aF719.0
aF68.15
aF2454.0
aF74.36
aF393.0
aF805.0
aF1198.0
aF36.3
aF516.0
aF505.0
aF239.0
aF145.0
aF666.0
asI697
(lp284
F758.0
aF1719.0
aF44.1
aF181.0
aF534.0
aF33.9
aF557.0
aF799.0
aF69.71
aF2254.0
aF68.3
aF412.0
aF781.0
aF1193.0
aF36.15
aF444.0
aF426.0
aF215.0
aF51.0
aF602.0
aF702.0
aF1703.0
aF41.22
aF179.0
aF566.0
aF31.63
aF426.0
aF619.0
aF68.82
aF2009.0
aF60.88
aF321.0
aF667.0
aF988.0
aF29.94
aF368.0
aF441.0
aF208.0
aF146.0
aF686.0
asI698
(lp285
F821.0
aF1883.0
aF43.6
aF214.0
aF612.0
aF34.97
aF364.0
aF540.0
aF67.41
aF2220.0
aF67.27
aF315.0
aF769.0
aF1084.0
aF32.85
aF474.0
aF418.0
aF208.0
aF74.0
aF634.0
aF818.0
aF1779.0
aF45.98
aF200.0
aF607.0
aF32.95
aF482.0
aF693.0
aF69.55
aF2318.0
aF70.24
aF299.0
aF837.0
aF1136.0
aF34.42
aF471.0
aF438.0
aF192.0
aF111.0
aF528.0
asI699
(lp286
F691.0
aF1622.0
aF42.6
aF185.0
aF614.0
aF30.13
aF489.0
aF774.0
aF63.18
aF2056.0
aF64.25
aF328.0
aF778.0
aF1106.0
aF34.56
aF392.0
aF527.0
aF258.0
aF111.0
aF598.0
aF727.0
aF1744.0
aF41.69
aF207.0
aF633.0
aF32.7
aF431.0
aF690.0
aF62.46
aF2092.0
aF65.38
aF394.0
aF745.0
aF1139.0
aF35.59
aF444.0
aF516.0
aF268.0
aF90.0
aF640.0
asI700
(lp287
F824.0
aF1853.0
aF44.47
aF179.0
aF491.0
aF36.46
aF515.0
aF706.0
aF72.95
aF2342.0
aF73.19
aF361.0
aF719.0
aF1080.0
aF33.75
aF426.0
aF442.0
aF190.0
aF138.0
aF640.0
aF859.0
aF1881.0
aF45.67
aF181.0
aF515.0
aF35.15
aF512.0
aF736.0
aF69.57
aF2411.0
aF75.34
aF397.0
aF752.0
aF1149.0
aF35.91
aF392.0
aF439.0
aF221.0
aF97.0
aF623.0
asI702
(lp288
F712.0
aF1616.0
aF44.06
aF212.0
aF607.0
aF34.93
aF419.0
aF594.0
aF70.54
aF2055.0
aF70.86
aF327.0
aF723.0
aF1050.0
aF36.21
aF362.0
aF510.0
aF199.0
aF77.0
aF624.0
aF654.0
aF1609.0
aF40.65
aF207.0
aF632.0
aF32.75
aF478.0
aF729.0
aF65.57
aF1993.0
aF68.72
aF368.0
aF668.0
aF1036.0
aF35.72
aF379.0
aF479.0
aF256.0
aF92.0
aF564.0
asI703
(lp289
F954.0
aF2099.0
aF45.45
aF201.0
aF535.0
aF37.57
aF592.0
aF905.0
aF65.41
aF2701.0
aF75.03
aF494.0
aF958.0
aF1452.0
aF40.33
aF485.0
aF425.0
aF207.0
aF183.0
aF616.0
aF816.0
aF2109.0
aF38.69
aF162.0
aF550.0
aF29.45
aF444.0
aF648.0
aF68.52
aF2238.0
aF62.17
aF423.0
aF800.0
aF1223.0
aF33.97
aF342.0
aF461.0
aF191.0
aF105.0
aF748.0
asI704
(lp290
F878.0
aF1887.0
aF46.53
aF199.0
aF547.0
aF36.38
aF515.0
aF769.0
aF66.97
aF2470.0
aF70.57
aF289.0
aF893.0
aF1182.0
aF33.77
aF538.0
aF438.0
aF237.0
aF133.0
aF651.0
aF784.0
aF1958.0
aF40.04
aF220.0
aF718.0
aF30.64
aF437.0
aF653.0
aF66.92
aF2225.0
aF63.57
aF398.0
aF869.0
aF1267.0
aF36.2
aF459.0
aF515.0
aF217.0
aF98.0
aF667.0
asI706
(lp291
F802.0
aF1871.0
aF42.86
aF234.0
aF667.0
aF35.08
aF546.0
aF774.0
aF70.54
aF2384.0
aF70.12
aF362.0
aF824.0
aF1186.0
aF34.88
aF430.0
aF461.0
aF240.0
aF76.0
aF657.0
aF813.0
aF1941.0
aF41.89
aF254.0
aF766.0
aF33.16
aF483.0
aF695.0
aF69.5
aF2363.0
aF69.5
aF413.0
aF827.0
aF1240.0
aF36.47
aF443.0
aF480.0
aF199.0
aF112.0
aF696.0
asI709
(lp292
F635.0
aF1557.0
aF40.78
aF170.0
aF531.0
aF32.02
aF413.0
aF658.0
aF62.77
aF1853.0
aF57.91
aF304.0
aF698.0
aF1002.0
aF31.31
aF392.0
aF509.0
aF174.0
aF47.0
aF538.0
aF790.0
aF1755.0
aF45.01
aF259.0
aF729.0
aF35.53
aF408.0
aF584.0
aF69.86
aF2247.0
aF70.22
aF367.0
aF753.0
aF1120.0
aF35.0
aF508.0
aF397.0
aF265.0
aF126.0
aF600.0
asI711
(lp293
F715.0
aF1633.0
aF43.78
aF179.0
aF503.0
aF35.59
aF444.0
aF614.0
aF72.31
aF2053.0
aF68.43
aF306.0
aF628.0
aF934.0
aF31.13
aF342.0
aF361.0
aF174.0
aF87.0
aF517.0
aF825.0
aF1698.0
aF48.59
aF218.0
aF542.0
aF40.22
aF411.0
aF583.0
aF70.5
aF2279.0
aF75.97
aF342.0
aF704.0
aF1046.0
aF34.87
aF458.0
aF348.0
aF193.0
aF95.0
aF530.0
asI716
(lp294
F733.0
aF1796.0
aF40.81
aF255.0
aF743.0
aF34.32
aF355.0
aF536.0
aF66.23
aF2076.0
aF71.59
aF358.0
aF736.0
aF1094.0
aF37.72
aF395.0
aF414.0
aF193.0
aF104.0
aF509.0
aF774.0
aF1746.0
aF44.33
aF257.0
aF699.0
aF36.77
aF438.0
aF627.0
aF69.86
aF2243.0
aF77.34
aF339.0
aF806.0
aF1145.0
aF39.48
aF426.0
aF413.0
aF223.0
aF118.0
aF490.0
asI718
(lp295
F708.0
aF1646.0
aF43.01
aF230.0
aF632.0
aF36.39
aF411.0
aF597.0
aF68.84
aF2057.0
aF68.57
aF324.0
aF632.0
aF956.0
aF31.87
aF403.0
aF367.0
aF208.0
aF82.0
aF516.0
aF695.0
aF1524.0
aF45.6
aF174.0
aF516.0
aF33.72
aF411.0
aF571.0
aF71.98
aF1975.0
aF65.83
aF287.0
aF714.0
aF1001.0
aF33.37
aF416.0
aF459.0
aF183.0
aF113.0
aF574.0
asI719
(lp296
F753.0
aF1717.0
aF43.86
aF214.0
aF613.0
aF34.91
aF535.0
aF763.0
aF70.12
aF2255.0
aF70.47
aF366.0
aF818.0
aF1184.0
aF37.0
aF365.0
aF441.0
aF142.0
aF119.0
aF636.0
aF735.0
aF1739.0
aF42.27
aF180.0
aF539.0
aF33.4
aF515.0
aF711.0
aF72.43
aF2165.0
aF67.66
aF299.0
aF707.0
aF1006.0
aF31.44
aF362.0
aF377.0
aF203.0
aF103.0
aF652.0
asI721
(lp297
F722.0
aF1532.0
aF47.13
aF212.0
aF563.0
aF37.66
aF418.0
aF593.0
aF70.49
aF2074.0
aF64.81
aF187.0
aF731.0
aF918.0
aF28.69
aF494.0
aF386.0
aF200.0
aF83.0
aF563.0
aF705.0
aF1737.0
aF40.59
aF266.0
aF788.0
aF33.76
aF406.0
aF567.0
aF71.6
aF2082.0
aF65.06
aF381.0
aF728.0
aF1109.0
aF34.66
aF449.0
aF407.0
aF174.0
aF100.0
aF587.0
asI725
(lp298
F707.0
aF1702.0
aF41.54
aF264.0
aF724.0
aF36.46
aF360.0
aF506.0
aF71.15
aF2038.0
aF67.93
aF324.0
aF696.0
aF1020.0
aF34.0
aF404.0
aF424.0
aF168.0
aF53.0
aF606.0
aF728.0
aF1634.0
aF44.55
aF214.0
aF590.0
aF36.27
aF471.0
aF678.0
aF69.47
aF2141.0
aF71.37
aF319.0
aF756.0
aF1075.0
aF35.83
aF429.0
aF418.0
aF177.0
aF113.0
aF526.0
asI726
(lp299
F694.0
aF1766.0
aF39.3
aF236.0
aF803.0
aF29.39
aF489.0
aF690.0
aF70.87
aF2113.0
aF68.16
aF269.0
aF711.0
aF980.0
aF31.61
aF387.0
aF474.0
aF284.0
aF82.0
aF648.0
aF763.0
aF1719.0
aF44.39
aF224.0
aF649.0
aF34.51
aF504.0
aF716.0
aF70.39
aF2254.0
aF72.71
aF358.0
aF913.0
aF1271.0
aF41.0
aF473.0
aF592.0
aF210.0
aF99.0
aF638.0
asI731
(lp300
F840.0
aF1788.0
aF46.98
aF206.0
aF562.0
aF36.65
aF563.0
aF764.0
aF73.69
aF2449.0
aF72.03
aF363.0
aF903.0
aF1266.0
aF37.24
aF500.0
aF402.0
aF162.0
aF110.0
aF591.0
aF696.0
aF1815.0
aF38.35
aF186.0
aF616.0
aF30.19
aF417.0
aF616.0
aF67.69
aF1995.0
aF58.68
aF319.0
aF688.0
aF1007.0
aF29.62
aF363.0
aF412.0
aF185.0
aF98.0
aF666.0
asI732
(lp301
F734.0
aF1724.0
aF42.58
aF181.0
aF546.0
aF33.15
aF429.0
aF618.0
aF69.42
aF2078.0
aF67.03
aF320.0
aF786.0
aF1106.0
aF35.68
aF298.0
aF425.0
aF141.0
aF160.0
aF598.0
aF763.0
aF1808.0
aF42.2
aF174.0
aF498.0
aF34.94
aF477.0
aF693.0
aF68.83
aF2177.0
aF70.23
aF363.0
aF767.0
aF1130.0
aF36.45
aF403.0
aF332.0
aF211.0
aF129.0
aF576.0
asI735
(lp302
F948.0
aF2001.0
aF47.38
aF220.0
aF685.0
aF32.12
aF448.0
aF674.0
aF66.47
aF2564.0
aF73.26
aF394.0
aF824.0
aF1218.0
aF34.8
aF553.0
aF481.0
aF272.0
aF95.0
aF674.0
aF813.0
aF1920.0
aF42.34
aF208.0
aF635.0
aF32.76
aF545.0
aF775.0
aF70.32
aF2379.0
aF67.97
aF401.0
aF784.0
aF1185.0
aF33.86
aF410.0
aF513.0
aF229.0
aF118.0
aF681.0
asI736
(lp303
F848.0
aF1853.0
aF45.76
aF263.0
aF708.0
aF37.15
aF622.0
aF837.0
aF74.31
aF2581.0
aF75.91
aF370.0
aF885.0
aF1255.0
aF36.91
aF454.0
aF441.0
aF175.0
aF162.0
aF552.0
aF848.0
aF2063.0
aF41.11
aF203.0
aF649.0
aF31.28
aF402.0
aF577.0
aF69.67
aF2301.0
aF67.68
aF419.0
aF753.0
aF1172.0
aF34.47
aF392.0
aF406.0
aF232.0
aF116.0
aF679.0
asI738
(lp304
F779.0
aF1741.0
aF44.74
aF151.0
aF430.0
aF35.12
aF438.0
aF648.0
aF67.59
aF2147.0
aF67.09
aF401.0
aF829.0
aF1230.0
aF38.44
aF395.0
aF430.0
aF160.0
aF105.0
aF527.0
aF711.0
aF1812.0
aF39.24
aF188.0
aF581.0
aF32.36
aF362.0
aF508.0
aF71.26
aF1972.0
aF61.62
aF343.0
aF675.0
aF1018.0
aF31.81
aF329.0
aF382.0
aF198.0
aF110.0
aF609.0
asI739
(lp305
F796.0
aF1819.0
aF43.76
aF210.0
aF604.0
aF34.77
aF582.0
aF769.0
aF75.68
aF2384.0
aF72.24
aF402.0
aF821.0
aF1223.0
aF37.06
aF450.0
aF392.0
aF208.0
aF125.0
aF578.0
aF739.0
aF1823.0
aF40.54
aF210.0
aF656.0
aF32.01
aF471.0
aF665.0
aF70.83
aF2159.0
aF65.42
aF356.0
aF720.0
aF1076.0
aF32.61
aF443.0
aF397.0
aF194.0
aF118.0
aF648.0
asI740
(lp306
F968.0
aF2228.0
aF43.45
aF339.0
aF917.0
aF36.97
aF589.0
aF824.0
aF71.48
aF2864.0
aF71.6
aF427.0
aF865.0
aF1292.0
aF32.3
aF583.0
aF452.0
aF328.0
aF140.0
aF735.0
aF971.0
aF2200.0
aF44.14
aF222.0
aF661.0
aF33.59
aF509.0
aF751.0
aF67.78
aF2673.0
aF66.83
aF496.0
aF959.0
aF1455.0
aF36.38
aF518.0
aF584.0
aF234.0
aF150.0
aF747.0
asI741
(lp307
F935.0
aF2083.0
aF44.89
aF351.0
aF979.0
aF35.85
aF505.0
aF712.0
aF70.93
aF2726.0
aF87.94
aF380.0
aF783.0
aF1163.0
aF37.52
aF462.0
aF411.0
aF269.0
aF141.0
aF609.0
aF926.0
aF2018.0
aF45.89
aF192.0
aF540.0
aF35.56
aF501.0
aF740.0
aF67.7
aF2545.0
aF82.1
aF439.0
aF860.0
aF1299.0
aF41.9
aF493.0
aF509.0
aF208.0
aF95.0
aF570.0
asI742
(lp308
F834.0
aF1845.0
aF45.2
aF189.0
aF572.0
aF33.04
aF533.0
aF751.0
aF70.97
aF2390.0
aF70.29
aF362.0
aF806.0
aF1168.0
aF34.35
aF425.0
aF419.0
aF224.0
aF125.0
aF579.0
aF771.0
aF1851.0
aF41.65
aF211.0
aF656.0
aF32.16
aF380.0
aF578.0
aF65.74
aF2133.0
aF62.74
aF364.0
aF748.0
aF1112.0
aF32.71
aF414.0
aF490.0
aF157.0
aF112.0
aF671.0
asI746
(lp309
F668.0
aF1611.0
aF41.46
aF226.0
aF583.0
aF38.77
aF356.0
aF516.0
aF68.99
aF1918.0
aF61.87
aF272.0
aF702.0
aF974.0
aF31.42
aF354.0
aF339.0
aF179.0
aF92.0
aF498.0
aF705.0
aF1612.0
aF43.73
aF208.0
aF573.0
aF36.3
aF317.0
aF465.0
aF68.17
aF1935.0
aF62.42
aF280.0
aF765.0
aF1045.0
aF33.71
aF331.0
aF379.0
aF154.0
aF123.0
aF500.0
asI748
(lp310
F671.0
aF1544.0
aF43.46
aF196.0
aF529.0
aF37.05
aF491.0
aF636.0
aF77.2
aF2029.0
aF67.63
aF238.0
aF648.0
aF886.0
aF29.53
aF419.0
aF460.0
aF177.0
aF119.0
aF748.0
aF648.0
aF1517.0
aF42.72
aF145.0
aF410.0
aF35.37
aF674.0
aF944.0
aF71.4
aF2115.0
aF70.5
aF359.0
aF712.0
aF1071.0
aF35.7
aF354.0
aF458.0
aF214.0
aF77.0
aF606.0
asI749
(lp311
F735.0
aF1736.0
aF42.34
aF184.0
aF513.0
aF35.87
aF497.0
aF666.0
aF74.62
aF2151.0
aF67.22
aF285.0
aF756.0
aF1041.0
aF32.53
aF362.0
aF494.0
aF170.0
aF174.0
aF594.0
aF902.0
aF1978.0
aF45.6
aF223.0
aF602.0
aF37.04
aF442.0
aF641.0
aF68.95
aF2469.0
aF77.16
aF414.0
aF797.0
aF1211.0
aF37.84
aF506.0
aF394.0
aF261.0
aF96.0
aF587.0
asI754
(lp312
F902.0
aF1982.0
aF45.51
aF240.0
aF682.0
aF35.19
aF506.0
aF714.0
aF70.87
aF2550.0
aF72.86
aF332.0
aF877.0
aF1209.0
aF34.54
aF466.0
aF445.0
aF239.0
aF136.0
aF612.0
aF814.0
aF2040.0
aF39.9
aF252.0
aF808.0
aF31.19
aF479.0
aF666.0
aF71.92
aF2359.0
aF67.4
aF437.0
aF844.0
aF1281.0
aF36.6
aF467.0
aF507.0
aF221.0
aF101.0
aF653.0
asI756
(lp313
F1061.0
aF2260.0
aF46.95
aF305.0
aF821.0
aF37.15
aF480.0
aF712.0
aF67.42
aF2907.0
aF83.06
aF488.0
aF879.0
aF1367.0
aF39.06
aF593.0
aF426.0
aF234.0
aF179.0
aF708.0
aF844.0
aF2017.0
aF41.84
aF183.0
aF558.0
aF32.8
aF603.0
aF887.0
aF67.98
aF2474.0
aF70.69
aF412.0
aF807.0
aF1219.0
aF34.83
aF385.0
aF517.0
aF207.0
aF97.0
aF656.0
asI758
(lp314
F766.0
aF1707.0
aF44.87
aF256.0
aF623.0
aF41.09
aF455.0
aF602.0
aF75.58
aF2243.0
aF70.09
aF279.0
aF793.0
aF1072.0
aF33.5
aF401.0
aF408.0
aF177.0
aF91.0
aF636.0
aF725.0
aF1719.0
aF42.18
aF221.0
aF607.0
aF36.41
aF473.0
aF669.0
aF70.7
aF2144.0
aF67.0
aF302.0
aF740.0
aF1042.0
aF32.56
aF364.0
aF376.0
aF196.0
aF100.0
aF542.0
asI768
(lp315
F783.0
aF1826.0
aF42.88
aF206.0
aF611.0
aF33.72
aF531.0
aF747.0
aF71.08
aF2303.0
aF69.79
aF469.0
aF758.0
aF1227.0
aF37.18
aF491.0
aF397.0
aF154.0
aF136.0
aF598.0
aF752.0
aF1827.0
aF41.16
aF172.0
aF592.0
aF29.05
aF458.0
aF658.0
aF69.6
aF2134.0
aF64.67
aF417.0
aF699.0
aF1116.0
aF33.82
aF367.0
aF393.0
aF212.0
aF102.0
aF699.0
asI769
(lp316
F857.0
aF1990.0
aF43.07
aF190.0
aF570.0
aF33.33
aF399.0
aF613.0
aF65.09
aF2303.0
aF69.79
aF428.0
aF761.0
aF1189.0
aF36.03
aF432.0
aF453.0
aF299.0
aF102.0
aF683.0
aF779.0
aF1733.0
aF44.95
aF161.0
aF519.0
aF31.02
aF556.0
aF821.0
aF67.72
aF2275.0
aF68.94
aF346.0
aF831.0
aF1177.0
aF35.67
aF392.0
aF522.0
aF217.0
aF99.0
aF572.0
asI771
(lp317
F595.0
aF1439.0
aF41.35
aF160.0
aF457.0
aF35.01
aF369.0
aF558.0
aF66.13
aF1719.0
aF57.3
aF217.0
aF676.0
aF893.0
aF29.77
aF313.0
aF402.0
aF153.0
aF74.0
aF571.0
aF654.0
aF1523.0
aF42.94
aF174.0
aF509.0
aF34.18
aF463.0
aF660.0
aF70.15
aF1945.0
aF64.83
aF303.0
aF727.0
aF1030.0
aF34.33
aF380.0
aF360.0
aF193.0
aF82.0
aF532.0
asI772
(lp318
F809.0
aF1855.0
aF43.61
aF179.0
aF573.0
aF31.24
aF445.0
aF693.0
aF64.21
aF2242.0
aF70.06
aF427.0
aF760.0
aF1187.0
aF37.09
aF392.0
aF475.0
aF185.0
aF124.0
aF582.0
aF831.0
aF1900.0
aF43.74
aF216.0
aF595.0
aF36.3
aF385.0
aF590.0
aF65.25
aF2263.0
aF70.72
aF422.0
aF757.0
aF1179.0
aF36.84
aF419.0
aF451.0
aF203.0
aF104.0
aF629.0
asI774
(lp319
F875.0
aF1974.0
aF44.33
aF195.0
aF559.0
aF34.88
aF495.0
aF708.0
aF69.92
aF2440.0
aF71.76
aF448.0
aF832.0
aF1280.0
aF37.65
aF442.0
aF465.0
aF199.0
aF118.0
aF659.0
aF836.0
aF1939.0
aF43.12
aF199.0
aF572.0
aF34.79
aF450.0
aF694.0
aF64.84
aF2321.0
aF68.26
aF380.0
aF762.0
aF1142.0
aF33.59
aF424.0
aF438.0
aF207.0
aF104.0
aF650.0
asI782
(lp320
F954.0
aF2037.0
aF46.83
aF260.0
aF733.0
aF35.47
aF522.0
aF700.0
aF74.57
aF2690.0
aF72.7
aF421.0
aF968.0
aF1389.0
aF37.54
aF572.0
aF462.0
aF212.0
aF144.0
aF672.0
aF798.0
aF1956.0
aF40.8
aF195.0
aF577.0
aF33.8
aF490.0
aF703.0
aF69.7
aF2281.0
aF61.65
aF318.0
aF760.0
aF1078.0
aF29.14
aF370.0
aF448.0
aF205.0
aF104.0
aF671.0
asI786
(lp321
F701.0
aF1584.0
aF44.26
aF250.0
aF689.0
aF36.28
aF399.0
aF572.0
aF69.76
aF2051.0
aF64.09
aF241.0
aF780.0
aF1021.0
aF31.91
aF426.0
aF423.0
aF134.0
aF95.0
aF526.0
aF782.0
aF1806.0
aF43.3
aF233.0
aF664.0
aF35.09
aF377.0
aF531.0
aF71.0
aF2174.0
aF67.94
aF335.0
aF733.0
aF1068.0
aF33.38
aF428.0
aF316.0
aF239.0
aF102.0
aF563.0
asI792
(lp322
F719.0
aF1732.0
aF41.51
aF126.0
aF410.0
aF30.73
aF409.0
aF636.0
aF64.31
aF1973.0
aF65.77
aF371.0
aF750.0
aF1121.0
aF37.37
aF352.0
aF394.0
aF223.0
aF98.0
aF572.0
aF686.0
aF1650.0
aF41.58
aF191.0
aF578.0
aF33.04
aF443.0
aF651.0
aF68.05
aF2006.0
aF66.87
aF335.0
aF770.0
aF1105.0
aF36.83
aF362.0
aF428.0
aF189.0
aF123.0
aF529.0
asI794
(lp323
F787.0
aF1801.0
aF43.7
aF152.0
aF477.0
aF31.87
aF428.0
aF621.0
aF68.92
aF2154.0
aF67.31
aF406.0
aF696.0
aF1102.0
aF34.44
aF377.0
aF421.0
aF198.0
aF119.0
aF650.0
aF731.0
aF1632.0
aF44.79
aF195.0
aF515.0
aF37.86
aF532.0
aF738.0
aF72.09
aF2189.0
aF68.41
aF329.0
aF718.0
aF1047.0
aF32.72
aF406.0
aF470.0
aF191.0
aF114.0
aF608.0
asI796
(lp324
F798.0
aF1808.0
aF44.14
aF278.0
aF744.0
aF37.37
aF436.0
aF533.0
aF81.8
aF2310.0
aF67.94
aF355.0
aF733.0
aF1088.0
aF32.0
aF442.0
aF258.0
aF121.0
aF105.0
aF522.0
aF705.0
aF1647.0
aF42.81
aF179.0
aF484.0
aF36.98
aF403.0
aF542.0
aF74.35
aF1992.0
aF58.59
aF273.0
aF695.0
aF968.0
aF28.47
aF325.0
aF329.0
aF133.0
aF61.0
aF570.0
asI797
(lp325
F755.0
aF1753.0
aF43.07
aF250.0
aF711.0
aF35.16
aF506.0
aF774.0
aF65.37
aF2266.0
aF68.67
aF361.0
aF759.0
aF1120.0
aF33.94
aF422.0
aF459.0
aF164.0
aF72.0
aF582.0
aF827.0
aF1841.0
aF44.92
aF216.0
aF600.0
aF36.0
aF430.0
aF604.0
aF71.19
aF2300.0
aF69.7
aF336.0
aF767.0
aF1103.0
aF33.42
aF410.0
aF419.0
aF227.0
aF104.0
aF691.0
asI810
(lp326
F710.0
aF1649.0
aF43.06
aF217.0
aF608.0
aF35.69
aF486.0
aF650.0
aF74.77
aF2123.0
aF64.33
aF257.0
aF641.0
aF898.0
aF27.21
aF337.0
aF356.0
aF205.0
aF35.0
aF621.0
aF704.0
aF1527.0
aF46.1
aF178.0
aF545.0
aF32.66
aF449.0
aF636.0
aF70.6
aF2035.0
aF61.67
aF274.0
aF767.0
aF1041.0
aF31.55
aF366.0
aF499.0
aF144.0
aF101.0
aF595.0
asI811
(lp327
F720.0
aF1671.0
aF43.09
aF155.0
aF549.0
aF28.23
aF449.0
aF667.0
aF67.32
aF2044.0
aF65.94
aF309.0
aF693.0
aF1002.0
aF32.32
aF324.0
aF436.0
aF233.0
aF117.0
aF567.0
aF764.0
aF1710.0
aF44.68
aF230.0
aF625.0
aF36.8
aF403.0
aF568.0
aF70.95
aF2161.0
aF69.71
aF335.0
aF767.0
aF1102.0
aF35.55
aF394.0
aF465.0
aF190.0
aF95.0
aF600.0
asI812
(lp328
F784.0
aF1700.0
aF46.12
aF173.0
aF526.0
aF32.89
aF565.0
aF756.0
aF74.74
aF2306.0
aF72.06
aF328.0
aF802.0
aF1130.0
aF35.31
aF424.0
aF386.0
aF174.0
aF98.0
aF551.0
aF707.0
aF1743.0
aF40.56
aF208.0
aF613.0
aF33.93
aF445.0
aF610.0
aF72.95
aF2067.0
aF64.59
aF308.0
aF683.0
aF991.0
aF30.97
aF418.0
aF401.0
aF183.0
aF104.0
aF653.0
asI813
(lp329
F654.0
aF1483.0
aF44.1
aF167.0
aF487.0
aF34.29
aF433.0
aF589.0
aF73.51
aF1908.0
aF68.14
aF250.0
aF711.0
aF961.0
aF34.32
aF355.0
aF380.0
aF133.0
aF129.0
aF522.0
aF669.0
aF1592.0
aF42.02
aF152.0
aF438.0
aF34.7
aF395.0
aF560.0
aF70.54
aF1885.0
aF67.32
aF290.0
aF662.0
aF952.0
aF34.0
aF310.0
aF336.0
aF165.0
aF99.0
aF559.0
asI817
(lp330
F756.0
aF1823.0
aF41.47
aF235.0
aF708.0
aF33.19
aF325.0
aF533.0
aF60.98
aF2072.0
aF69.07
aF323.0
aF709.0
aF1032.0
aF34.4
aF454.0
aF359.0
aF186.0
aF148.0
aF607.0
aF771.0
aF1717.0
aF44.9
aF172.0
aF475.0
aF36.21
aF512.0
aF747.0
aF68.54
aF2226.0
aF74.2
aF344.0
aF850.0
aF1194.0
aF39.8
aF413.0
aF387.0
aF175.0
aF74.0
aF510.0
asI2915
(lp331
F883.0
aF1853.0
aF47.65
aF197.0
aF493.0
aF39.96
aF539.0
aF778.0
aF69.28
aF2502.0
aF73.59
aF372.0
aF736.0
aF1108.0
aF32.59
aF487.0
aF404.0
aF227.0
aF86.0
aF654.0
aF796.0
aF1787.0
aF44.54
aF188.0
aF540.0
aF34.81
aF533.0
aF742.0
aF71.83
aF2313.0
aF68.03
aF353.0
aF720.0
aF1073.0
aF31.56
aF365.0
aF453.0
aF200.0
aF110.0
aF675.0
asI1004
(lp332
F690.0
aF1657.0
aF41.64
aF165.0
aF527.0
aF31.31
aF439.0
aF684.0
aF64.18
aF1984.0
aF68.41
aF343.0
aF622.0
aF965.0
aF33.28
aF346.0
aF468.0
aF221.0
aF76.0
aF571.0
aF798.0
aF1649.0
aF48.39
aF174.0
aF506.0
aF34.39
aF446.0
aF633.0
aF70.46
aF2216.0
aF76.41
aF325.0
aF752.0
aF1077.0
aF37.14
aF463.0
aF483.0
aF205.0
aF136.0
aF592.0
asI1014
(lp333
F1037.0
aF2173.0
aF47.72
aF306.0
aF835.0
aF36.65
aF441.0
aF595.0
aF74.12
aF2821.0
aF76.24
aF404.0
aF874.0
aF1278.0
aF34.54
aF497.0
aF448.0
aF214.0
aF150.0
aF561.0
aF969.0
aF2218.0
aF43.69
aF213.0
aF627.0
aF33.97
aF403.0
aF600.0
aF67.17
aF2554.0
aF69.03
aF479.0
aF828.0
aF1307.0
aF35.32
aF473.0
aF482.0
aF228.0
aF72.0
aF596.0
asI1068
(lp334
F765.0
aF1786.0
aF42.83
aF285.0
aF784.0
aF36.35
aF486.0
aF681.0
aF71.37
aF2301.0
aF74.23
aF321.0
aF742.0
aF1063.0
aF34.29
aF435.0
aF391.0
aF171.0
aF81.0
aF599.0
aF827.0
aF1790.0
aF46.2
aF206.0
aF540.0
aF38.15
aF441.0
aF657.0
aF67.12
aF2301.0
aF74.23
aF350.0
aF802.0
aF1152.0
aF37.16
aF389.0
aF427.0
aF183.0
aF94.0
aF624.0
asI1092
(lp335
F716.0
aF1742.0
aF41.1
aF203.0
aF626.0
aF32.43
aF350.0
aF545.0
aF64.22
aF1985.0
aF62.03
aF362.0
aF732.0
aF1094.0
aF34.19
aF333.0
aF475.0
aF224.0
aF77.0
aF600.0
aF729.0
aF1653.0
aF44.1
aF208.0
aF551.0
aF37.75
aF463.0
aF645.0
aF71.78
aF2129.0
aF66.53
aF297.0
aF775.0
aF1072.0
aF33.5
aF407.0
aF461.0
aF227.0
aF115.0
aF553.0
asI1157
(lp336
F720.0
aF1731.0
aF41.59
aF176.0
aF580.0
aF30.34
aF401.0
aF618.0
aF64.89
aF2017.0
aF65.06
aF384.0
aF673.0
aF1057.0
aF34.1
aF347.0
aF443.0
aF171.0
aF119.0
aF532.0
aF857.0
aF1844.0
aF46.48
aF204.0
aF551.0
aF37.02
aF402.0
aF607.0
aF66.23
aF2320.0
aF74.84
aF416.0
aF740.0
aF1156.0
aF37.29
aF481.0
aF377.0
aF229.0
aF102.0
aF576.0
asI19651
(lp337
F705.0
aF1711.0
aF41.2
aF170.0
aF491.0
aF34.62
aF470.0
aF707.0
aF66.48
aF2050.0
aF66.13
aF370.0
aF685.0
aF1055.0
aF34.03
aF342.0
aF469.0
aF226.0
aF88.0
aF669.0
aF759.0
aF1656.0
aF45.83
aF166.0
aF496.0
aF33.47
aF566.0
aF805.0
aF70.31
aF2250.0
aF72.58
aF358.0
aF773.0
aF1131.0
aF36.48
aF374.0
aF468.0
aF235.0
aF121.0
aF615.0
asI1320
(lp338
F679.0
aF1530.0
aF44.38
aF218.0
aF559.0
aF39.0
aF339.0
aF466.0
aF72.75
aF1915.0
aF61.77
aF252.0
aF672.0
aF924.0
aF29.81
aF367.0
aF428.0
aF126.0
aF54.0
aF454.0
aF777.0
aF1698.0
aF45.76
aF190.0
aF549.0
aF34.61
aF322.0
aF464.0
aF69.4
aF2066.0
aF66.65
aF336.0
aF687.0
aF1023.0
aF33.0
aF372.0
aF351.0
aF202.0
aF95.0
aF517.0
asI30024
(lp339
F744.0
aF1682.0
aF44.23
aF197.0
aF546.0
aF36.08
aF591.0
aF780.0
aF75.77
aF2276.0
aF75.87
aF342.0
aF850.0
aF1192.0
aF39.73
aF416.0
aF414.0
aF151.0
aF92.0
aF568.0
aF727.0
aF1765.0
aF41.19
aF204.0
aF610.0
aF33.44
aF396.0
aF634.0
aF62.46
aF2054.0
aF68.47
aF309.0
aF695.0
aF1004.0
aF33.47
aF348.0
aF370.0
aF191.0
aF100.0
aF673.0
asI1356
(lp340
F758.0
aF1897.0
aF39.96
aF175.0
aF578.0
aF30.28
aF447.0
aF680.0
aF65.74
aF2138.0
aF68.97
aF450.0
aF717.0
aF1167.0
aF37.65
aF358.0
aF541.0
aF259.0
aF60.0
aF678.0
aF786.0
aF1730.0
aF45.43
aF196.0
aF570.0
aF34.39
aF584.0
aF809.0
aF72.19
aF2352.0
aF75.87
aF346.0
aF812.0
aF1158.0
aF37.35
aF461.0
aF547.0
aF260.0
aF152.0
aF600.0
asI26172
(lp341
F684.0
aF1583.0
aF43.21
aF145.0
aF487.0
aF29.77
aF430.0
aF668.0
aF64.37
aF1943.0
aF62.68
aF363.0
aF682.0
aF1045.0
aF33.71
aF350.0
aF540.0
aF199.0
aF109.0
aF555.0
aF793.0
aF1721.0
aF46.08
aF192.0
aF555.0
aF34.59
aF416.0
aF580.0
aF71.72
aF2194.0
aF70.77
aF330.0
aF681.0
aF1011.0
aF32.61
aF451.0
aF407.0
aF272.0
aF92.0
aF579.0
asI630
(lp342
F808.0
aF1999.0
aF40.42
aF207.0
aF556.0
aF37.23
aF568.0
aF753.0
aF75.43
aF2391.0
aF72.45
aF407.0
aF824.0
aF1231.0
aF37.3
aF406.0
aF363.0
aF179.0
aF82.0
aF629.0
aF839.0
aF1920.0
aF43.7
aF231.0
aF676.0
aF34.17
aF496.0
aF723.0
aF68.6
aF2405.0
aF72.88
aF343.0
aF840.0
aF1183.0
aF35.85
aF474.0
aF399.0
aF151.0
aF116.0
aF657.0
asI2699
(lp343
F854.0
aF1806.0
aF47.29
aF198.0
aF561.0
aF35.29
aF458.0
aF586.0
aF78.16
aF2364.0
aF71.64
aF350.0
aF697.0
aF1047.0
aF31.73
aF362.0
aF371.0
aF193.0
aF88.0
aF501.0
aF855.0
aF1810.0
aF47.24
aF220.0
aF610.0
aF36.07
aF352.0
aF506.0
aF69.57
aF2282.0
aF69.15
aF348.0
aF680.0
aF1028.0
aF31.15
aF468.0
aF397.0
aF177.0
aF94.0
aF554.0
asI2707
(lp344
F710.0
aF1628.0
aF43.61
aF232.0
aF668.0
aF34.73
aF448.0
aF677.0
aF66.17
aF2100.0
aF70.0
aF327.0
aF649.0
aF976.0
aF32.53
aF321.0
aF419.0
aF186.0
aF78.0
aF590.0
aF784.0
aF1668.0
aF47.0
aF193.0
aF524.0
aF36.83
aF456.0
aF643.0
aF70.92
aF2217.0
aF73.9
aF324.0
aF704.0
aF1028.0
aF34.27
aF423.0
aF395.0
aF171.0
aF86.0
aF582.0
asI663
(lp345
F788.0
aF1634.0
aF48.23
aF277.0
aF703.0
aF39.4
aF409.0
aF551.0
aF74.23
aF2262.0
aF64.63
aF222.0
aF744.0
aF966.0
aF27.6
aF488.0
aF490.0
aF217.0
aF108.0
aF572.0
aF759.0
aF1802.0
aF42.12
aF237.0
aF628.0
aF37.74
aF392.0
aF550.0
aF71.27
aF2147.0
aF61.34
aF382.0
aF695.0
aF1077.0
aF30.77
aF387.0
aF485.0
aF218.0
aF66.0
aF594.0
asI28600
(lp346
F793.0
aF1750.0
aF45.31
aF199.0
aF596.0
aF33.39
aF502.0
aF711.0
aF70.6
aF2287.0
aF76.23
aF364.0
aF759.0
aF1123.0
aF37.43
aF461.0
aF464.0
aF245.0
aF63.0
aF611.0
aF779.0
aF1763.0
aF44.19
aF205.0
aF624.0
aF32.85
aF450.0
aF691.0
aF65.12
aF2213.0
aF73.77
aF351.0
aF708.0
aF1059.0
aF35.3
aF419.0
aF436.0
aF223.0
aF116.0
aF604.0
as.