((lp0
(lp1
F26.0
aF53.27777777777778
aF48.8
aF5.388888888888889
aF14.527777777777779
aF37.09
aF19.583333333333332
aF28.52777777777778
aF68.65
aF76.97222222222223
aF76.97
aF11.88888888888889
aF25.5
aF37.388888888888886
aF37.39
aF13.166666666666666
aF12.694444444444445
aF4.694444444444445
aF6.222222222222222
aF17.055555555555557
aF23.97222222222222
aF59.80555555555556
aF40.08
aF4.5
aF13.666666666666666
aF32.93
aF14.63888888888889
aF20.02777777777778
aF73.09
aF67.08333333333333
aF67.08
aF12.694444444444445
aF19.805555555555557
aF32.5
aF32.5
aF9.444444444444445
aF11.027777777777779
aF5.583333333333333
aF2.5555555555555554
aF22.38888888888889
aF2.0277777777777786
aF-6.527777777777779
aF8.719999999999999
aF0.8888888888888893
aF0.8611111111111125
aF4.160000000000004
aF4.944444444444443
aF8.5
aF-4.439999999999998
aF9.8888888888889
aF9.89
aF-0.8055555555555554
aF5.694444444444443
aF4.888888888888886
aF4.890000000000001
aF3.7222222222222214
aF1.666666666666666
aF-0.8888888888888884
aF3.666666666666667
aF-5.333333333333332
aF24.25
aF55.80555555555556
aF43.45
aF5.166666666666667
aF14.416666666666666
aF35.84
aF16.61111111111111
aF25.055555555555557
aF66.3
aF70.27777777777777
aF70.28
aF13.055555555555555
aF24.833333333333332
aF37.888888888888886
aF37.89
aF9.88888888888889
aF9.86111111111111
aF7.611111111111111
aF5.083333333333333
aF16.666666666666668
aF20.38888888888889
aF52.888888888888886
aF38.55
aF4.833333333333333
aF16.77777777777778
aF28.81
aF11.38888888888889
aF16.86111111111111
aF67.55
aF57.0
aF57.0
aF10.277777777777779
aF22.5
aF32.77777777777778
aF32.78
aF9.916666666666666
aF13.61111111111111
aF4.277777777777778
aF4.194444444444445
aF19.583333333333332
aF3.8611111111111107
aF2.9166666666666714
aF4.900000000000006
aF0.3333333333333339
aF-2.3611111111111125
aF7.030000000000005
aF5.222222222222221
aF8.194444444444446
aF-1.25
aF13.277777777777771
aF13.280000000000001
aF2.777777777777777
aF2.333333333333332
aF5.111111111111107
aF5.109999999999999
aF-0.02777777777777679
aF-3.75
aF3.333333333333333
aF0.8888888888888884
aF-2.9166666666666643
aa(lp2
F25.09090909090909
aF55.666666666666664
aF45.07
aF6.303030303030303
aF17.09090909090909
aF36.88
aF20.484848484848484
aF30.87878787878788
aF66.34
aF76.96969696969697
aF76.97
aF12.575757575757576
aF24.818181818181817
aF37.39393939393939
aF37.39
aF13.121212121212121
aF14.181818181818182
aF8.272727272727273
aF6.0606060606060606
aF24.21212121212121
aF22.393939393939394
aF54.81818181818182
aF40.85
aF4.96969696969697
aF15.212121212121213
aF32.67
aF20.272727272727273
aF28.96969696969697
aF69.98
aF70.03030303030303
aF70.03
aF12.393939393939394
aF23.939393939393938
aF36.333333333333336
aF36.33
aF11.818181818181818
aF15.606060606060606
aF6.2727272727272725
aF4.757575757575758
aF23.393939393939394
aF2.6969696969696955
aF0.8484848484848442
aF4.219999999999999
aF1.333333333333333
aF1.8787878787878771
aF4.210000000000001
aF0.21212121212121104
aF1.90909090909091
aF-3.6400000000000006
aF6.939393939393938
aF6.939999999999998
aF0.18181818181818166
aF0.8787878787878789
aF1.0606060606060552
aF1.0600000000000023
aF1.3030303030303028
aF-1.4242424242424239
aF2.000000000000001
aF1.3030303030303028
aF0.8181818181818166
aF28.405405405405407
aF60.32432432432432
aF47.09
aF7.783783783783784
aF21.16216216216216
aF36.78
aF16.43243243243243
aF24.864864864864863
aF66.09
aF81.02702702702703
aF81.03
aF13.594594594594595
aF24.135135135135137
aF37.729729729729726
aF37.73
aF15.35135135135135
aF10.567567567567568
aF10.0
aF4.675675675675675
aF19.54054054054054
aF21.243243243243242
aF53.5945945945946
aF39.64
aF4.594594594594595
aF16.054054054054053
aF28.62
aF14.0
aF20.56756756756757
aF68.07
aF61.13513513513514
aF61.14
aF11.72972972972973
aF23.0
aF34.729729729729726
aF34.73
aF10.45945945945946
aF17.243243243243242
aF4.5675675675675675
aF2.7837837837837838
aF20.405405405405407
aF7.162162162162165
aF6.729729729729726
aF7.450000000000003
aF3.1891891891891895
aF5.108108108108109
aF8.16
aF2.4324324324324316
aF4.297297297297295
aF-1.9799999999999898
aF19.891891891891895
aF19.89
aF1.864864864864865
aF1.1351351351351369
aF3.0
aF3.0
aF4.891891891891891
aF-6.675675675675674
aF5.4324324324324325
aF1.8918918918918917
aF-0.8648648648648667
aa(lp3
F22.5
aF50.970588235294116
aF44.14
aF4.794117647058823
aF13.323529411764707
aF35.98
aF16.058823529411764
aF21.41176470588235
aF75.0
aF65.8529411764706
aF65.85
aF10.088235294117647
aF24.470588235294116
aF34.55882352941177
aF34.56
aF11.058823529411764
aF12.588235294117647
aF5.411764705882353
aF2.9705882352941178
aF17.058823529411764
aF22.794117647058822
aF54.35294117647059
aF41.94
aF6.9411764705882355
aF19.88235294117647
aF34.91
aF11.411764705882353
aF15.794117647058824
aF72.25
aF63.94117647058823
aF63.94
aF9.676470588235293
aF21.558823529411764
aF31.235294117647058
aF31.24
aF12.323529411764707
aF11.676470588235293
aF5.794117647058823
aF3.0294117647058822
aF19.029411764705884
aF-0.2941176470588225
aF-3.382352941176471
aF2.200000000000003
aF-2.147058823529412
aF-6.5588235294117645
aF1.0700000000000003
aF4.647058823529411
aF5.617647058823527
aF2.75
aF1.9117647058823621
aF1.9099999999999966
aF0.41176470588235325
aF2.9117647058823515
aF3.32352941176471
aF3.320000000000004
aF-1.264705882352942
aF0.9117647058823533
aF-0.3823529411764701
aF-0.0588235294117645
aF-1.9705882352941195
aF24.23076923076923
aF52.717948717948715
aF45.96
aF6.538461538461538
aF18.23076923076923
aF35.86
aF14.923076923076923
aF22.333333333333332
aF66.82
aF69.92307692307692
aF69.92
aF11.538461538461538
aF23.974358974358974
aF35.51282051282051
aF35.51
aF13.051282051282051
aF11.051282051282051
aF7.0256410256410255
aF3.0256410256410255
aF15.666666666666666
aF20.666666666666668
aF51.38461538461539
aF40.22
aF5.3076923076923075
aF16.102564102564102
aF32.96
aF11.128205128205128
aF16.05128205128205
aF69.33
aF57.76923076923077
aF57.77
aF9.487179487179487
aF21.05128205128205
aF30.53846153846154
aF30.54
aF9.897435897435898
aF13.487179487179487
aF5.615384615384615
aF3.076923076923077
aF18.94871794871795
aF3.564102564102562
aF1.3333333333333286
aF5.740000000000002
aF1.2307692307692308
aF2.1282051282051277
aF2.8999999999999986
aF3.7948717948717956
aF6.282051282051281
aF-2.510000000000005
aF12.153846153846153
aF12.149999999999999
aF2.051282051282051
aF2.9230769230769234
aF4.974358974358971
aF4.969999999999999
aF3.1538461538461533
aF-2.435897435897436
aF1.4102564102564106
aF-0.051282051282051544
aF-3.282051282051283
aa(lp4
F24.86111111111111
aF54.0
aF46.04
aF5.083333333333333
aF14.5
aF35.06
aF17.02777777777778
aF23.916666666666668
aF71.2
aF71.83333333333333
aF71.83
aF12.0
aF23.86111111111111
aF35.861111111111114
aF35.86
aF15.63888888888889
aF10.36111111111111
aF7.055555555555555
aF2.9722222222222223
aF17.22222222222222
aF21.416666666666668
aF52.0
aF41.19
aF5.694444444444445
aF17.444444444444443
aF32.64
aF13.38888888888889
aF18.944444444444443
aF70.67
aF61.916666666666664
aF61.92
aF9.777777777777779
aF20.194444444444443
aF29.97222222222222
aF29.97
aF11.277777777777779
aF12.222222222222221
aF4.75
aF4.0
aF18.694444444444443
aF3.444444444444443
aF2.0
aF4.850000000000001
aF-0.6111111111111116
aF-2.944444444444443
aF2.4200000000000017
aF3.6388888888888893
aF4.972222222222225
aF0.5300000000000011
aF9.916666666666664
aF9.909999999999997
aF2.2222222222222214
aF3.666666666666668
aF5.888888888888893
aF5.890000000000001
aF4.361111111111111
aF-1.8611111111111107
aF2.3055555555555554
aF-1.0277777777777777
aF-1.4722222222222214
aF23.257142857142856
aF53.457142857142856
aF43.51
aF5.171428571428572
aF16.257142857142856
aF31.81
aF18.514285714285716
aF25.8
aF71.76
aF70.2
aF70.2
aF11.457142857142857
aF25.82857142857143
aF37.285714285714285
aF37.29
aF11.342857142857143
aF13.314285714285715
aF5.914285714285715
aF3.2857142857142856
aF16.457142857142856
aF24.485714285714284
aF56.77142857142857
aF43.13
aF7.171428571428572
aF20.17142857142857
aF35.55
aF12.057142857142857
aF17.17142857142857
aF70.22
aF68.2
aF68.2
aF9.114285714285714
aF22.257142857142856
aF31.37142857142857
aF31.37
aF13.285714285714286
aF12.057142857142857
aF6.571428571428571
aF3.3714285714285714
aF20.314285714285713
aF-1.2285714285714278
aF-3.3142857142857167
aF0.37999999999999545
aF-2.0
aF-3.9142857142857146
aF-3.7399999999999984
aF6.457142857142859
aF8.62857142857143
aF1.5400000000000063
aF2.0
aF2.0
aF2.3428571428571434
aF3.571428571428573
aF5.914285714285715
aF5.919999999999998
aF-1.942857142857143
aF1.257142857142858
aF-0.6571428571428566
aF-0.08571428571428585
aF-3.8571428571428577
aa(lp5
F26.38888888888889
aF57.22222222222222
aF46.12
aF4.444444444444445
aF14.583333333333334
aF30.48
aF13.916666666666666
aF21.166666666666668
aF65.75
aF71.13888888888889
aF71.14
aF11.722222222222221
aF22.694444444444443
aF34.416666666666664
aF34.42
aF12.944444444444445
aF10.416666666666666
aF4.805555555555555
aF4.138888888888889
aF18.61111111111111
aF23.63888888888889
aF55.47222222222222
aF42.61
aF5.444444444444445
aF16.97222222222222
aF32.08
aF16.833333333333332
aF23.63888888888889
aF71.21
aF69.55555555555556
aF69.56
aF12.583333333333334
aF22.583333333333332
aF35.166666666666664
aF35.17
aF11.277777777777779
aF11.5
aF5.694444444444445
aF3.4444444444444446
aF19.52777777777778
aF2.75
aF1.75
aF3.509999999999998
aF-1.0
aF-2.3888888888888875
aF-1.5999999999999979
aF-2.916666666666666
aF-2.4722222222222214
aF-5.459999999999994
aF1.5833333333333286
aF1.5799999999999983
aF-0.8611111111111125
aF0.11111111111111072
aF-0.75
aF-0.75
aF1.666666666666666
aF-1.083333333333334
aF-0.8888888888888893
aF0.6944444444444446
aF-0.9166666666666679
aF24.484848484848484
aF55.03030303030303
aF44.49
aF5.757575757575758
aF17.757575757575758
aF32.42
aF15.666666666666666
aF22.393939393939394
aF69.96
aF70.39393939393939
aF70.39
aF10.181818181818182
aF26.21212121212121
aF36.39393939393939
aF36.39
aF14.303030303030303
aF12.515151515151516
aF7.393939393939394
aF4.181818181818182
aF17.515151515151516
aF22.21212121212121
aF55.333333333333336
aF40.14
aF4.03030303030303
aF14.06060606060606
aF28.66
aF13.333333333333334
aF19.424242424242426
aF68.64
aF61.78787878787879
aF61.79
aF10.424242424242424
aF24.272727272727273
aF34.696969696969695
aF34.7
aF10.303030303030303
aF14.121212121212121
aF7.121212121212121
aF4.454545454545454
aF19.303030303030305
aF2.2727272727272734
aF-0.30303030303030454
aF4.350000000000001
aF1.7272727272727275
aF3.6969696969696972
aF3.7600000000000016
aF2.333333333333332
aF2.969696969696969
aF1.3199999999999932
aF8.606060606060602
aF8.600000000000001
aF-0.2424242424242422
aF1.9393939393939377
aF1.6969696969696955
aF1.6899999999999977
aF4.0
aF-1.6060606060606055
aF0.2727272727272725
aF-0.2727272727272725
aF-1.787878787878789
aa(lp6
F25.27027027027027
aF54.54054054054054
aF46.33
aF6.5675675675675675
aF17.405405405405407
aF37.73
aF15.08108108108108
aF22.135135135135137
aF68.13
aF72.1891891891892
aF72.19
aF11.18918918918919
aF23.64864864864865
aF34.83783783783784
aF34.84
aF13.108108108108109
aF11.945945945945946
aF6.0
aF2.5945945945945947
aF19.89189189189189
aF22.783783783783782
aF52.32432432432432
aF43.54
aF5.486486486486487
aF16.54054054054054
aF33.17
aF15.91891891891892
aF22.486486486486488
aF70.79
aF66.97297297297297
aF66.97
aF9.54054054054054
aF21.756756756756758
aF31.2972972972973
aF31.3
aF11.64864864864865
aF12.405405405405405
aF4.945945945945946
aF4.486486486486487
aF19.027027027027028
aF2.4864864864864877
aF2.2162162162162176
aF2.789999999999999
aF1.0810810810810807
aF0.8648648648648667
aF4.559999999999995
aF-0.8378378378378386
aF-0.35135135135135087
aF-2.660000000000011
aF5.216216216216225
aF5.219999999999999
aF1.6486486486486491
aF1.8918918918918912
aF3.5405405405405403
aF3.5400000000000027
aF1.4594594594594597
aF-0.45945945945945965
aF1.0540540540540544
aF-1.891891891891892
aF0.8648648648648631
aF24.085714285714285
aF53.57142857142857
aF44.96
aF5.714285714285714
aF17.62857142857143
aF32.41
aF15.6
aF22.65714285714286
aF68.85
aF69.48571428571428
aF69.49
aF9.885714285714286
aF24.02857142857143
aF33.91428571428571
aF33.91
aF12.028571428571428
aF11.257142857142858
aF7.714285714285714
aF4.485714285714286
aF16.485714285714284
aF21.742857142857144
aF53.51428571428571
aF40.63
aF4.942857142857143
aF16.885714285714286
aF29.27
aF11.342857142857143
aF15.942857142857143
aF71.15
aF59.77142857142857
aF59.77
aF10.114285714285714
aF23.514285714285716
aF33.628571428571426
aF33.63
aF9.514285714285714
aF14.342857142857143
aF4.114285714285714
aF3.0
aF19.34285714285714
aF2.3428571428571416
aF0.05714285714285694
aF4.329999999999998
aF0.7714285714285714
aF0.7428571428571438
aF3.139999999999997
aF4.257142857142856
aF6.714285714285715
aF-2.3000000000000114
aF9.714285714285708
aF9.719999999999992
aF-0.22857142857142776
aF0.5142857142857125
aF0.2857142857142847
aF0.27999999999999403
aF2.5142857142857142
aF-3.0857142857142854
aF3.6000000000000005
aF1.4857142857142858
aF-2.8571428571428577
aa(lp7
F22.666666666666668
aF46.27272727272727
aF48.98
aF6.2727272727272725
aF16.545454545454547
aF37.91
aF11.454545454545455
aF16.21212121212121
aF70.65
aF63.06060606060606
aF63.06
aF7.03030303030303
aF22.848484848484848
aF29.87878787878788
aF29.88
aF14.909090909090908
aF14.06060606060606
aF6.0
aF3.3333333333333335
aF17.181818181818183
aF20.333333333333332
aF49.121212121212125
aF41.39
aF4.878787878787879
aF15.303030303030303
aF31.88
aF13.575757575757576
aF20.0
aF67.88
aF59.121212121212125
aF59.12
aF9.666666666666666
aF19.484848484848484
aF29.151515151515152
aF29.15
aF10.181818181818182
aF11.969696969696969
aF7.090909090909091
aF2.393939393939394
aF17.545454545454547
aF2.3333333333333357
aF-2.8484848484848513
aF7.589999999999996
aF1.3939393939393936
aF1.242424242424244
aF6.029999999999998
aF-2.121212121212121
aF-3.787878787878789
aF2.7700000000000102
aF3.9393939393939377
aF3.940000000000005
aF-2.636363636363636
aF3.3636363636363633
aF0.7272727272727266
aF0.7300000000000004
aF4.727272727272727
aF2.0909090909090917
aF-1.0909090909090908
aF0.9393939393939394
aF-0.3636363636363633
aF24.394736842105264
aF53.10526315789474
aF45.94
aF7.815789473684211
aF20.789473684210527
aF37.59
aF16.894736842105264
aF22.657894736842106
aF74.56
aF73.5
aF73.5
aF8.868421052631579
aF24.44736842105263
aF33.31578947368421
aF33.32
aF12.31578947368421
aF8.078947368421053
aF4.815789473684211
aF3.3421052631578947
aF15.105263157894736
aF24.07894736842105
aF56.18421052631579
aF42.86
aF4.842105263157895
aF14.210526315789474
aF34.07
aF11.0
aF15.236842105263158
aF72.19
aF64.0
aF64.0
aF9.210526315789474
aF22.68421052631579
aF31.894736842105264
aF31.89
aF9.578947368421053
aF9.736842105263158
aF4.2368421052631575
aF2.763157894736842
aF20.07894736842105
aF0.3157894736842124
aF-3.0789473684210478
aF3.0799999999999983
aF2.973684210526316
aF6.578947368421053
aF3.520000000000003
aF5.894736842105264
aF7.421052631578949
aF2.3700000000000045
aF9.5
aF9.5
aF-0.3421052631578956
aF1.763157894736839
aF1.4210526315789487
aF1.4299999999999997
aF2.7368421052631575
aF-1.6578947368421044
aF0.5789473684210531
aF0.5789473684210527
aF-4.973684210526315
aa(lp8
F25.333333333333332
aF56.121212121212125
aF45.14
aF8.121212121212121
aF20.848484848484848
aF38.95
aF16.545454545454547
aF23.848484848484848
aF69.38
aF75.33333333333333
aF75.33
aF8.515151515151516
aF27.0
aF35.515151515151516
aF35.52
aF14.272727272727273
aF11.424242424242424
aF5.0606060606060606
aF5.515151515151516
aF19.242424242424242
aF24.87878787878788
aF59.42424242424242
aF41.87
aF5.303030303030303
aF16.242424242424242
aF32.65
aF14.363636363636363
aF22.181818181818183
aF64.75
aF69.42424242424242
aF69.42
aF11.666666666666666
aF26.242424242424242
aF37.90909090909091
aF37.91
aF11.727272727272727
aF11.93939393939394
aF5.575757575757576
aF4.090909090909091
aF19.939393939393938
aF0.45454545454545325
aF-3.3030303030302974
aF3.270000000000003
aF2.8181818181818183
aF4.6060606060606055
aF6.300000000000004
aF2.1818181818181834
aF1.6666666666666643
aF4.6299999999999955
aF5.9090909090909065
aF5.909999999999997
aF-3.1515151515151505
aF0.7575757575757578
aF-2.393939393939391
aF-2.3899999999999935
aF2.5454545454545467
aF-0.5151515151515156
aF-0.5151515151515156
aF1.4242424242424248
aF-0.6969696969696955
aF25.857142857142858
aF59.857142857142854
aF43.2
aF5.085714285714285
aF15.542857142857143
aF32.72
aF17.428571428571427
aF25.97142857142857
aF67.11
aF74.22857142857143
aF74.23
aF15.085714285714285
aF26.314285714285713
aF41.4
aF41.4
aF12.914285714285715
aF12.17142857142857
aF5.685714285714286
aF5.885714285714286
aF19.114285714285714
aF23.4
aF58.25714285714286
aF40.17
aF7.4
aF21.0
aF35.24
aF16.514285714285716
aF23.857142857142858
aF69.22
aF70.71428571428571
aF70.71
aF11.4
aF22.97142857142857
aF34.371428571428574
aF34.37
aF12.714285714285714
aF11.285714285714286
aF6.314285714285714
aF3.5142857142857142
aF20.37142857142857
aF2.457142857142859
aF1.5999999999999943
aF3.030000000000001
aF-2.314285714285715
aF-5.457142857142857
aF-2.520000000000003
aF0.914285714285711
aF2.114285714285714
aF-2.1099999999999994
aF3.5142857142857196
aF3.5200000000000102
aF3.685714285714285
aF3.3428571428571416
aF7.028571428571425
aF7.030000000000001
aF0.20000000000000107
aF0.8857142857142843
aF-0.6285714285714281
aF2.371428571428572
aF-1.2571428571428562
aa(lp9
F26.90909090909091
aF53.303030303030305
aF50.48
aF5.333333333333333
aF14.636363636363637
aF36.44
aF16.363636363636363
aF21.78787878787879
aF75.1
aF75.51515151515152
aF75.52
aF9.303030303030303
aF23.454545454545453
aF32.75757575757576
aF32.76
aF11.575757575757576
aF9.848484848484848
aF6.242424242424242
aF4.393939393939394
aF17.818181818181817
aF21.87878787878788
aF51.81818181818182
aF42.22
aF6.7272727272727275
aF18.181818181818183
aF37.0
aF15.090909090909092
aF20.12121212121212
aF75.0
aF65.57575757575758
aF65.58
aF8.727272727272727
aF19.96969696969697
aF28.696969696969695
aF28.7
aF11.151515151515152
aF11.515151515151516
aF5.090909090909091
aF1.9090909090909092
aF18.151515151515152
aF5.030303030303031
aF1.4848484848484844
aF8.259999999999998
aF-1.3939393939393945
aF-3.5454545454545467
aF-0.5600000000000023
aF1.2727272727272716
aF1.6666666666666679
aF0.09999999999999432
aF9.939393939393938
aF9.939999999999998
aF0.5757575757575761
aF3.4848484848484844
aF4.060606060606062
aF4.059999999999999
aF0.42424242424242387
aF-1.6666666666666679
aF1.1515151515151514
aF2.4848484848484844
aF-0.3333333333333357
aF27.545454545454547
aF61.63636363636363
aF44.69
aF8.636363636363637
aF22.78787878787879
aF37.9
aF18.21212121212121
aF24.303030303030305
aF74.94
aF81.93939393939394
aF81.94
aF12.06060606060606
aF25.575757575757574
aF37.63636363636363
aF37.64
aF14.636363636363637
aF11.393939393939394
aF6.787878787878788
aF3.272727272727273
aF18.939393939393938
aF26.181818181818183
aF59.878787878787875
aF43.72
aF7.151515151515151
aF20.90909090909091
aF34.2
aF16.484848484848484
aF23.060606060606062
aF71.48
aF76.0
aF76.0
aF11.181818181818182
aF25.12121212121212
aF36.303030303030305
aF36.3
aF12.484848484848484
aF12.909090909090908
aF5.909090909090909
aF3.393939393939394
aF20.87878787878788
aF1.3636363636363633
aF1.7575757575757578
aF0.9699999999999989
aF1.4848484848484853
aF1.878787878787879
aF3.6999999999999957
aF1.7272727272727266
aF1.2424242424242422
aF3.4599999999999937
aF5.939393939393938
aF5.939999999999998
aF0.8787878787878789
aF0.45454545454545325
aF1.3333333333333286
aF1.3400000000000034
aF2.1515151515151523
aF-1.5151515151515138
aF0.8787878787878789
aF-0.1212121212121211
aF-1.9393939393939412
aa(lp10
F28.914285714285715
aF62.457142857142856
aF46.29
aF5.057142857142857
aF14.228571428571428
aF35.54
aF20.857142857142858
aF30.142857142857142
aF69.19
aF83.74285714285715
aF83.74
aF13.228571428571428
aF27.685714285714287
aF40.91428571428571
aF40.91
aF15.542857142857143
aF11.285714285714286
aF7.171428571428572
aF2.942857142857143
aF19.714285714285715
aF26.714285714285715
aF62.142857142857146
aF42.99
aF7.4
aF21.82857142857143
aF33.9
aF16.485714285714284
aF23.142857142857142
aF71.23
aF77.31428571428572
aF77.31
aF10.914285714285715
aF24.885714285714286
aF35.8
aF35.8
aF14.714285714285714
aF12.6
aF6.085714285714285
aF4.2
aF22.857142857142858
aF2.1999999999999993
aF0.3142857142857096
aF3.299999999999997
aF-2.3428571428571434
aF-7.600000000000001
aF1.6400000000000006
aF4.371428571428574
aF7.0
aF-2.0400000000000063
aF6.428571428571431
aF6.429999999999993
aF2.314285714285713
aF2.8000000000000007
aF5.114285714285714
aF5.109999999999999
aF0.8285714285714292
aF-1.3142857142857132
aF1.0857142857142863
aF-1.2571428571428571
aF-3.1428571428571423
aF27.294117647058822
aF58.14705882352941
aF46.94
aF7.617647058823529
aF19.58823529411765
aF38.89
aF19.647058823529413
aF25.441176470588236
aF77.23
aF81.8529411764706
aF81.85
aF10.470588235294118
aF23.647058823529413
aF34.11764705882353
aF34.12
aF14.470588235294118
aF11.441176470588236
aF7.735294117647059
aF3.323529411764706
aF21.323529411764707
aF24.647058823529413
aF56.088235294117645
aF43.94
aF5.823529411764706
aF17.970588235294116
aF32.41
aF19.029411764705884
aF26.823529411764707
aF70.94
aF74.1470588235294
aF74.15
aF11.088235294117647
aF22.0
aF33.088235294117645
aF33.09
aF12.470588235294118
aF13.470588235294118
aF4.882352941176471
aF3.676470588235294
aF20.5
aF2.6470588235294095
aF2.058823529411768
aF3.0
aF1.7941176470588234
aF1.6176470588235325
aF6.480000000000004
aF0.617647058823529
aF-1.382352941176471
aF6.290000000000006
aF7.705882352941188
aF7.699999999999989
aF-0.617647058823529
aF1.647058823529413
aF1.029411764705884
aF1.029999999999994
aF2.0
aF-2.0294117647058822
aF2.852941176470588
aF-0.35294117647058787
aF0.8235294117647065
aa(lp11
F24.484848484848484
aF54.666666666666664
aF44.79
aF5.9393939393939394
aF16.484848484848484
aF36.03
aF11.909090909090908
aF17.939393939393938
aF66.39
aF66.81818181818181
aF66.82
aF10.666666666666666
aF22.363636363636363
aF33.03030303030303
aF33.03
aF12.818181818181818
aF10.636363636363637
aF6.212121212121212
aF1.6363636363636365
aF17.515151515151516
aF22.03030303030303
aF49.75757575757576
aF44.28
aF4.636363636363637
aF14.484848484848484
aF32.01
aF13.545454545454545
aF19.96969696969697
aF67.83
aF62.24242424242424
aF62.24
aF8.666666666666666
aF23.03030303030303
aF31.696969696969695
aF31.7
aF9.878787878787879
aF12.848484848484848
aF5.575757575757576
aF3.3636363636363638
aF16.87878787878788
aF2.4545454545454533
aF4.9090909090909065
aF0.509999999999998
aF1.3030303030303028
aF2.0
aF4.020000000000003
aF-1.6363636363636367
aF-2.030303030303031
aF-1.4399999999999977
aF4.575757575757571
aF4.579999999999991
aF2.0
aF-0.6666666666666679
aF1.3333333333333357
aF1.3300000000000018
aF2.9393939393939394
aF-2.212121212121211
aF0.6363636363636358
aF-1.7272727272727273
aF0.6363636363636367
aF25.54054054054054
aF53.567567567567565
aF47.68
aF8.621621621621621
aF21.45945945945946
aF40.18
aF14.243243243243244
aF18.675675675675677
aF76.27
aF73.94594594594595
aF73.95
aF8.891891891891891
aF22.45945945945946
aF31.35135135135135
aF31.35
aF14.18918918918919
aF9.324324324324325
aF5.162162162162162
aF2.3783783783783785
aF14.243243243243244
aF24.45945945945946
aF55.0
aF44.47
aF5.4324324324324325
aF17.08108108108108
aF31.8
aF10.72972972972973
aF14.675675675675675
aF73.11
aF65.08108108108108
aF65.08
aF9.837837837837839
aF21.35135135135135
aF31.18918918918919
aF31.19
aF11.81081081081081
aF10.756756756756756
aF4.891891891891892
aF2.7027027027027026
aF16.91891891891892
aF1.0810810810810807
aF-1.4324324324324351
aF3.210000000000001
aF3.1891891891891886
aF4.378378378378379
aF8.379999999999999
aF3.513513513513514
aF4.000000000000002
aF3.1599999999999966
aF8.86486486486487
aF8.870000000000005
aF-0.9459459459459474
aF1.1081081081081088
aF0.1621621621621614
aF0.16000000000000014
aF2.378378378378379
aF-1.4324324324324316
aF0.2702702702702702
aF-0.3243243243243241
aF-2.6756756756756754
aa(lp12
F24.705882352941178
aF52.61764705882353
aF46.95
aF7.352941176470588
aF19.41176470588235
aF37.88
aF14.794117647058824
aF22.941176470588236
aF64.49
aF71.55882352941177
aF71.56
aF9.588235294117647
aF26.235294117647058
aF35.8235294117647
aF35.82
aF14.0
aF12.382352941176471
aF4.4411764705882355
aF4.529411764705882
aF16.0
aF24.264705882352942
aF57.8235294117647
aF41.96
aF6.794117647058823
aF19.88235294117647
aF34.17
aF12.264705882352942
aF17.705882352941178
aF69.27
aF67.58823529411765
aF67.59
aF10.088235294117647
aF22.941176470588236
aF33.029411764705884
aF33.03
aF13.5
aF10.117647058823529
aF6.588235294117647
aF2.3823529411764706
aF19.08823529411765
aF0.4411764705882355
aF-5.205882352941174
aF4.990000000000002
aF0.5588235294117645
aF-0.47058823529411953
aF3.710000000000001
aF2.5294117647058822
aF5.235294117647058
aF-4.780000000000001
aF3.970588235294116
aF3.969999999999999
aF-0.5
aF3.2941176470588225
aF2.794117647058819
aF2.789999999999999
aF0.5
aF2.264705882352942
aF-2.1470588235294112
aF2.1470588235294117
aF-3.0882352941176485
aF24.275
aF54.05
aF44.91
aF7.175
aF18.525
aF38.73
aF16.1
aF20.725
aF77.68
aF71.825
aF71.83
aF9.675
aF25.225
aF34.9
aF34.9
aF12.2
aF11.425
aF7.025
aF5.75
aF17.975
aF21.95
aF56.025
aF39.18
aF6.025
aF18.275
aF32.97
aF13.3
aF20.025
aF66.42
aF63.225
aF63.23
aF12.3
aF22.15
aF34.45
aF34.45
aF11.35
aF12.95
aF5.7
aF3.175
aF18.275
aF2.3249999999999993
aF-1.9750000000000014
aF5.729999999999997
aF1.1499999999999995
aF0.25
aF5.759999999999998
aF2.8000000000000007
aF0.7000000000000028
aF11.260000000000005
aF8.600000000000001
aF8.600000000000001
aF-2.625
aF3.075000000000003
aF0.44999999999999574
aF0.44999999999999574
aF0.8499999999999996
aF-1.5249999999999986
aF1.3250000000000002
aF2.575
aF-0.29999999999999716
aa(lp13
F23.085714285714285
aF53.94285714285714
aF42.8
aF7.0
aF21.542857142857144
aF32.49
aF17.257142857142856
aF23.514285714285716
aF73.39
aF70.42857142857143
aF70.43
aF9.8
aF23.97142857142857
aF33.77142857142857
aF33.77
aF13.6
aF13.4
aF5.714285714285714
aF2.4285714285714284
aF18.0
aF24.82857142857143
aF56.885714285714286
aF43.65
aF5.828571428571428
aF18.771428571428572
aF31.05
aF15.057142857142857
aF20.2
aF74.54
aF70.54285714285714
aF70.54
aF10.657142857142857
aF24.8
aF35.457142857142856
aF35.46
aF11.857142857142858
aF12.714285714285714
aF6.857142857142857
aF3.7714285714285714
aF21.02857142857143
aF-1.7428571428571438
aF-2.942857142857143
aF-0.8500000000000014
aF1.1714285714285717
aF2.7714285714285722
aF1.4400000000000013
aF2.1999999999999993
aF3.3142857142857167
aF-1.1500000000000057
aF-0.11428571428571388
aF-0.10999999999999943
aF-0.8571428571428559
aF-0.8285714285714292
aF-1.6857142857142833
aF-1.6899999999999977
aF1.742857142857142
aF0.6857142857142868
aF-1.1428571428571423
aF-1.342857142857143
aF-3.0285714285714285
aF25.58823529411765
aF56.088235294117645
aF45.62
aF8.941176470588236
aF25.147058823529413
aF35.56
aF17.852941176470587
aF24.941176470588236
aF71.58
aF77.97058823529412
aF77.97
aF11.147058823529411
aF26.0
aF37.14705882352941
aF37.15
aF15.382352941176471
aF11.941176470588236
aF6.9411764705882355
aF4.147058823529412
aF19.764705882352942
aF22.441176470588236
aF55.470588235294116
aF40.46
aF6.470588235294118
aF18.323529411764707
aF35.31
aF15.147058823529411
aF21.41176470588235
aF70.74
aF66.5
aF66.5
aF10.441176470588236
aF23.0
aF33.44117647058823
aF33.44
aF12.147058823529411
aF13.764705882352942
aF5.676470588235294
aF2.2941176470588234
aF20.352941176470587
aF3.147058823529413
aF0.617647058823529
aF5.159999999999997
aF2.4705882352941178
aF6.8235294117647065
aF0.25
aF2.7058823529411757
aF3.529411764705884
aF0.8400000000000034
aF11.470588235294116
aF11.469999999999999
aF0.7058823529411757
aF3.0
aF3.705882352941181
aF3.710000000000001
aF3.2352941176470598
aF-1.8235294117647065
aF1.2647058823529411
aF1.8529411764705888
aF-0.588235294117645
aa(lp14
F26.742857142857144
aF60.22857142857143
aF44.4
aF7.2
aF20.771428571428572
aF34.66
aF18.8
aF26.428571428571427
aF71.14
aF79.48571428571428
aF79.49
aF11.0
aF25.114285714285714
aF36.114285714285714
aF36.11
aF10.771428571428572
aF9.542857142857143
aF5.942857142857143
aF3.5142857142857142
aF18.857142857142858
aF26.742857142857144
aF60.42857142857143
aF44.26
aF6.257142857142857
aF19.142857142857142
aF32.69
aF15.914285714285715
aF22.942857142857143
aF69.36
aF75.65714285714286
aF75.66
aF12.257142857142858
aF26.742857142857144
aF39.0
aF39.0
aF11.82857142857143
aF11.942857142857143
aF4.885714285714286
aF3.7714285714285714
aF21.02857142857143
aF0.0
aF-0.20000000000000284
aF0.14000000000000057
aF0.9428571428571431
aF1.62857142857143
aF1.9699999999999989
aF2.885714285714286
aF3.485714285714284
aF1.7800000000000011
aF3.828571428571422
aF3.8299999999999983
aF-1.257142857142858
aF-1.62857142857143
aF-2.885714285714286
aF-2.8900000000000006
aF-1.057142857142857
aF-2.4000000000000004
aF1.057142857142857
aF-0.2571428571428571
aF-2.171428571428571
aF26.94736842105263
aF56.81578947368421
aF47.43
aF8.078947368421053
aF20.605263157894736
aF39.21
aF13.552631578947368
aF19.157894736842106
aF70.74
aF75.52631578947368
aF75.53
aF10.763157894736842
aF26.07894736842105
aF36.8421052631579
aF36.84
aF16.763157894736842
aF11.578947368421053
aF6.815789473684211
aF4.578947368421052
aF18.973684210526315
aF21.5
aF54.1578947368421
aF39.7
aF6.631578947368421
aF20.0
aF33.16
aF15.921052631578947
aF21.81578947368421
aF72.98
aF65.55263157894737
aF65.55
aF9.868421052631579
aF21.92105263157895
aF31.789473684210527
aF31.79
aF10.657894736842104
aF11.81578947368421
aF5.631578947368421
aF2.8947368421052633
aF17.605263157894736
aF5.44736842105263
aF2.6578947368421098
aF7.729999999999997
aF1.4473684210526319
aF0.6052631578947363
aF6.050000000000004
aF-2.3684210526315788
aF-2.6578947368421026
aF-2.240000000000009
aF9.973684210526315
aF9.980000000000004
aF0.8947368421052637
aF4.157894736842103
aF5.05263157894737
aF5.050000000000004
aF6.105263157894738
aF-0.23684210526315752
aF1.1842105263157894
aF1.684210526315789
aF1.3684210526315788
aa(lp15
F24.59375
aF52.90625
aF46.49
aF5.75
aF14.96875
aF38.41
aF18.28125
aF25.28125
aF72.31
aF73.21875
aF73.22
aF10.46875
aF23.65625
aF34.125
aF34.12
aF14.09375
aF11.40625
aF7.59375
aF4.84375
aF17.6875
aF21.25
aF52.03125
aF40.84
aF5.125
aF15.96875
aF32.09
aF13.375
aF18.84375
aF70.98
aF61.0
aF61.0
aF9.9375
aF21.4375
aF31.375
aF31.38
aF10.6875
aF14.34375
aF5.78125
aF3.5625
aF20.8125
aF3.34375
aF0.875
aF5.649999999999999
aF0.625
aF-1.0
aF6.319999999999993
aF4.90625
aF6.4375
aF1.3299999999999983
aF12.21875
aF12.219999999999999
aF0.53125
aF2.21875
aF2.75
aF2.7399999999999984
aF3.40625
aF-2.9375
aF1.8125
aF1.28125
aF-3.125
aF23.676470588235293
aF55.6764705882353
aF42.53
aF5.764705882352941
aF17.205882352941178
aF33.5
aF15.264705882352942
aF21.558823529411764
aF70.8
aF68.38235294117646
aF68.38
aF13.441176470588236
aF22.558823529411764
aF36.0
aF36.0
aF12.5
aF11.088235294117647
aF7.882352941176471
aF5.529411764705882
aF17.529411764705884
aF20.294117647058822
aF51.3235294117647
aF39.54
aF5.352941176470588
aF16.705882352941178
aF32.04
aF12.470588235294118
aF18.470588235294116
aF67.52
aF58.411764705882355
aF58.41
aF10.764705882352942
aF20.941176470588236
aF31.705882352941178
aF31.71
aF11.0
aF14.264705882352942
aF5.205882352941177
aF3.5294117647058822
aF18.647058823529413
aF3.382352941176471
aF4.352941176470594
aF2.990000000000002
aF0.41176470588235325
aF0.5
aF1.4600000000000009
aF2.7941176470588243
aF3.0882352941176485
aF3.280000000000001
aF9.970588235294109
aF9.969999999999999
aF2.6764705882352935
aF1.617647058823529
aF4.2941176470588225
aF4.289999999999999
aF1.5
aF-3.1764705882352953
aF2.6764705882352944
aF2.0
aF-1.117647058823529
aa(lp16
F23.606060606060606
aF51.03030303030303
aF46.26
aF5.909090909090909
aF17.96969696969697
aF32.88
aF18.78787878787879
aF25.939393939393938
aF72.43
aF71.9090909090909
aF71.91
aF9.787878787878787
aF24.848484848484848
aF34.63636363636363
aF34.64
aF11.393939393939394
aF14.06060606060606
aF5.878787878787879
aF3.3636363636363638
aF18.242424242424242
aF23.424242424242426
aF57.06060606060606
aF41.05
aF6.818181818181818
aF22.060606060606062
aF30.91
aF14.06060606060606
aF19.727272727272727
aF71.27
aF67.72727272727273
aF67.73
aF11.666666666666666
aF21.151515151515152
aF32.81818181818182
aF32.82
aF12.303030303030303
aF12.636363636363637
aF7.212121212121212
aF3.303030303030303
aF21.181818181818183
aF0.18181818181817988
aF-6.030303030303031
aF5.210000000000001
aF-0.9090909090909092
aF-4.0909090909090935
aF1.9700000000000024
aF4.727272727272728
aF6.212121212121211
aF1.1600000000000108
aF4.181818181818173
aF4.179999999999993
aF-1.878787878787879
aF3.6969696969696955
aF1.818181818181813
aF1.8200000000000003
aF-0.9090909090909083
aF1.4242424242424239
aF-1.333333333333333
aF0.06060606060606055
aF-2.9393939393939412
aF24.08823529411765
aF55.088235294117645
aF43.73
aF4.911764705882353
aF14.852941176470589
aF33.07
aF14.882352941176471
aF21.029411764705884
aF70.77
aF67.97058823529412
aF67.97
aF13.117647058823529
aF22.176470588235293
aF35.294117647058826
aF35.29
aF11.823529411764707
aF9.0
aF7.970588235294118
aF5.029411764705882
aF16.058823529411764
aF20.147058823529413
aF49.088235294117645
aF41.04
aF6.852941176470588
aF19.88235294117647
aF34.47
aF12.029411764705882
aF18.0
aF66.83
aF59.1764705882353
aF59.18
aF10.176470588235293
aF21.352941176470587
aF31.529411764705884
aF31.53
aF12.882352941176471
aF13.382352941176471
aF4.294117647058823
aF3.0588235294117645
aF17.676470588235293
aF3.9411764705882355
aF6.0
aF2.6899999999999977
aF-1.9411764705882346
aF-5.029411764705882
aF-1.3999999999999986
aF2.8529411764705888
aF3.029411764705884
aF3.9399999999999977
aF8.794117647058819
aF8.79
aF2.9411764705882355
aF0.8235294117647065
aF3.764705882352942
aF3.759999999999998
aF-1.0588235294117645
aF-4.382352941176471
aF3.6764705882352944
aF1.9705882352941178
aF-1.617647058823529
aa(lp17
F24.181818181818183
aF55.75757575757576
aF43.37
aF6.0
aF18.12121212121212
aF33.11
aF14.727272727272727
aF22.454545454545453
aF65.59
aF69.0909090909091
aF69.09
aF12.303030303030303
aF23.454545454545453
aF35.75757575757576
aF35.76
aF15.242424242424242
aF12.242424242424242
aF6.212121212121212
aF2.9696969696969697
aF21.636363636363637
aF21.90909090909091
aF53.75757575757576
aF40.76
aF4.909090909090909
aF16.757575757575758
aF29.29
aF16.696969696969695
aF24.393939393939394
aF68.45
aF65.42424242424242
aF65.42
aF11.666666666666666
aF23.151515151515152
aF34.81818181818182
aF34.82
aF11.515151515151516
aF12.606060606060606
aF6.424242424242424
aF3.878787878787879
aF18.818181818181817
aF2.2727272727272734
aF2.0
aF2.6099999999999994
aF1.0909090909090908
aF1.3636363636363633
aF3.8200000000000003
aF-1.9696969696969688
aF-1.9393939393939412
aF-2.8599999999999994
aF3.6666666666666714
aF3.6700000000000017
aF0.6363636363636367
aF0.303030303030301
aF0.9393939393939377
aF0.9399999999999977
aF3.7272727272727266
aF-0.3636363636363633
aF-0.21212121212121193
aF-0.9090909090909092
aF2.81818181818182
aF25.1
aF55.35
aF45.35
aF5.075
aF15.275
aF33.22
aF19.525
aF28.65
aF68.15
aF74.8
aF74.8
aF14.35
aF25.85
aF40.2
aF40.2
aF11.15
aF12.025
aF4.725
aF5.9
aF18.3
aF23.325
aF56.775
aF41.08
aF5.55
aF17.225
aF32.22
aF14.425
aF20.9
aF69.02
aF66.625
aF66.62
aF10.925
aF19.85
aF30.775
aF30.77
aF10.4
aF10.7
aF5.8
aF3.075
aF22.1
aF1.7750000000000021
aF-1.4249999999999972
aF4.270000000000003
aF-0.47499999999999964
aF-1.950000000000001
aF1.0
aF5.099999999999998
aF7.75
aF-0.8699999999999903
aF8.174999999999997
aF8.179999999999993
aF3.424999999999999
aF6.0
aF9.425000000000004
aF9.430000000000003
aF0.75
aF1.325000000000001
aF-1.0750000000000002
aF2.825
aF-3.8000000000000007
aa(lp18
F28.228571428571428
aF60.77142857142857
aF46.45
aF7.0285714285714285
aF19.142857142857142
aF36.72
aF17.514285714285716
aF26.085714285714285
aF67.14
aF81.0
aF81.0
aF13.8
aF24.34285714285714
aF38.142857142857146
aF38.14
aF13.485714285714286
aF13.342857142857143
aF7.142857142857143
aF4.114285714285714
aF21.0
aF25.885714285714286
aF58.02857142857143
aF44.61
aF5.857142857142857
aF17.542857142857144
aF33.39
aF17.542857142857144
aF25.285714285714285
aF69.38
aF75.17142857142858
aF75.17
aF11.457142857142857
aF23.257142857142856
aF34.714285714285715
aF34.71
aF11.771428571428572
aF13.8
aF6.057142857142857
aF5.257142857142857
aF21.285714285714285
aF2.3428571428571416
aF2.74285714285714
aF1.8400000000000034
aF1.1714285714285717
aF1.5999999999999979
aF3.3299999999999983
aF-0.02857142857142847
aF0.8000000000000007
aF-2.239999999999995
aF5.828571428571422
aF5.829999999999998
aF2.3428571428571434
aF1.0857142857142854
aF3.4285714285714306
aF3.4299999999999997
aF1.7142857142857135
aF-0.4571428571428573
aF1.0857142857142863
aF-1.1428571428571432
aF-0.2857142857142847
aF27.34285714285714
aF55.05714285714286
aF49.66
aF10.17142857142857
aF24.542857142857144
aF41.44
aF13.885714285714286
aF18.685714285714287
aF74.31
aF78.74285714285715
aF78.74
aF8.371428571428572
aF25.685714285714287
aF34.05714285714286
aF34.06
aF17.542857142857144
aF9.771428571428572
aF3.9714285714285715
aF1.4
aF17.65714285714286
aF24.114285714285714
aF56.65714285714286
aF42.56
aF6.685714285714286
aF19.571428571428573
aF34.16
aF12.971428571428572
aF18.685714285714287
aF69.42
aF67.88571428571429
aF67.89
aF9.914285714285715
aF21.857142857142858
aF31.771428571428572
aF31.77
aF12.228571428571428
aF9.657142857142857
aF4.828571428571428
aF2.8
aF18.485714285714284
aF3.2285714285714278
aF-1.6000000000000014
aF7.099999999999994
aF3.485714285714285
aF4.9714285714285715
aF7.280000000000001
aF0.9142857142857146
aF0.0
aF4.890000000000001
aF10.857142857142861
aF10.849999999999994
aF-1.5428571428571427
aF3.828571428571429
aF2.2857142857142847
aF2.2900000000000027
aF5.314285714285717
aF0.11428571428571566
aF-0.8571428571428568
aF-1.4
aF-0.8285714285714256
aa(lp19
F22.176470588235293
aF54.411764705882355
aF40.76
aF6.411764705882353
aF19.235294117647058
aF33.33
aF12.205882352941176
aF17.735294117647058
aF68.82
aF62.970588235294116
aF62.97
aF11.088235294117647
aF21.147058823529413
aF32.23529411764706
aF32.24
aF11.588235294117647
aF8.911764705882353
aF5.823529411764706
aF2.735294117647059
aF18.264705882352942
aF21.735294117647058
aF50.11764705882353
aF43.37
aF5.382352941176471
aF15.911764705882353
aF33.83
aF14.764705882352942
aF20.41176470588235
aF72.33
aF63.61764705882353
aF63.62
aF10.029411764705882
aF23.794117647058822
aF33.8235294117647
aF33.82
aF12.294117647058824
aF11.264705882352942
aF4.5
aF3.5294117647058822
aF15.852941176470589
aF0.4411764705882355
aF4.294117647058826
aF-2.6099999999999994
aF1.0294117647058822
aF3.3235294117647047
aF-0.5
aF-2.5588235294117663
aF-2.6764705882352935
aF-3.510000000000005
aF-0.647058823529413
aF-0.6499999999999986
aF1.0588235294117645
aF-2.6470588235294095
aF-1.588235294117645
aF-1.5799999999999983
aF-0.7058823529411775
aF-2.3529411764705888
aF1.3235294117647056
aF-0.7941176470588234
aF2.4117647058823533
aF24.88888888888889
aF53.916666666666664
aF46.16
aF6.944444444444445
aF19.77777777777778
aF35.11
aF18.444444444444443
aF25.444444444444443
aF72.49
aF75.16666666666667
aF75.17
aF11.63888888888889
aF26.75
aF38.388888888888886
aF38.39
aF13.63888888888889
aF10.38888888888889
aF6.861111111111111
aF5.111111111111111
aF16.97222222222222
aF20.72222222222222
aF53.083333333333336
aF39.04
aF5.861111111111111
aF19.0
aF30.85
aF12.166666666666666
aF18.72222222222222
aF64.99
aF59.47222222222222
aF59.47
aF9.416666666666666
aF21.52777777777778
aF30.944444444444443
aF30.94
aF9.88888888888889
aF12.11111111111111
aF4.722222222222222
aF2.5833333333333335
aF20.88888888888889
aF4.166666666666668
aF0.8333333333333286
aF7.119999999999997
aF1.083333333333334
aF0.7777777777777786
aF4.259999999999998
aF6.277777777777777
aF6.722222222222221
aF7.5
aF15.69444444444445
aF15.700000000000003
aF2.222222222222223
aF5.222222222222221
aF7.444444444444443
aF7.449999999999999
aF3.75
aF-1.7222222222222214
aF2.1388888888888884
aF2.5277777777777772
aF-3.916666666666668
aa(lp20
F24.257142857142856
aF56.68571428571428
aF42.79
aF6.228571428571429
aF17.942857142857143
aF34.71
aF18.571428571428573
aF23.742857142857144
aF78.22
aF73.31428571428572
aF73.31
aF12.342857142857143
aF24.17142857142857
aF36.51428571428571
aF36.51
aF13.6
aF11.6
aF5.542857142857143
aF4.942857142857143
aF17.228571428571428
aF25.514285714285716
aF57.628571428571426
aF44.27
aF5.371428571428571
aF16.4
aF32.75
aF13.4
aF19.457142857142856
aF68.87
aF69.8
aF69.8
aF10.685714285714285
aF22.514285714285716
aF33.2
aF33.2
aF12.057142857142857
aF10.942857142857143
aF5.714285714285714
aF3.2
aF19.685714285714287
aF-1.2571428571428598
aF-0.9428571428571431
aF-1.480000000000004
aF0.8571428571428577
aF1.5428571428571445
aF1.9600000000000009
aF5.171428571428573
aF4.285714285714288
aF9.349999999999994
aF3.5142857142857196
aF3.510000000000005
aF1.6571428571428584
aF1.6571428571428548
aF3.3142857142857096
aF3.309999999999995
aF1.5428571428571427
aF0.6571428571428566
aF-0.1714285714285717
aF1.7428571428571429
aF-2.457142857142859
aF28.029411764705884
aF60.5
aF46.33
aF4.294117647058823
aF12.764705882352942
aF33.64
aF16.235294117647058
aF25.941176470588236
aF62.59
aF76.58823529411765
aF76.59
aF14.205882352941176
aF25.5
aF39.705882352941174
aF39.71
aF15.382352941176471
aF11.941176470588236
aF7.323529411764706
aF4.735294117647059
aF20.294117647058822
aF23.823529411764707
aF57.3235294117647
aF41.56
aF6.205882352941177
aF19.558823529411764
aF31.73
aF15.911764705882353
aF23.735294117647058
aF67.04
aF69.76470588235294
aF69.76
aF11.617647058823529
aF23.058823529411764
aF34.6764705882353
aF34.68
aF11.0
aF13.588235294117647
aF5.9411764705882355
aF4.0
aF21.08823529411765
aF4.2058823529411775
aF3.176470588235297
aF4.769999999999996
aF-1.9117647058823533
aF-6.7941176470588225
aF1.9100000000000001
aF0.32352941176470473
aF2.2058823529411775
aF-4.450000000000003
aF6.82352941176471
aF6.829999999999998
aF2.5882352941176467
aF2.4411764705882355
aF5.029411764705877
aF5.030000000000001
aF4.382352941176471
aF-1.6470588235294112
aF1.3823529411764701
aF0.7352941176470589
aF-0.794117647058826
aa(lp21
F23.866666666666667
aF49.6
aF48.12
aF7.166666666666667
aF18.3
aF39.16
aF18.266666666666666
aF24.8
aF73.66
aF73.16666666666667
aF73.17
aF8.4
aF26.033333333333335
aF34.43333333333333
aF34.43
aF13.333333333333334
aF12.4
aF4.1
aF4.0
aF18.033333333333335
aF24.233333333333334
aF57.2
aF42.37
aF4.233333333333333
aF12.966666666666667
aF32.65
aF13.733333333333333
aF19.433333333333334
aF70.67
aF66.43333333333334
aF66.43
aF10.133333333333333
aF20.933333333333334
aF31.066666666666666
aF31.07
aF11.333333333333334
aF9.3
aF5.266666666666667
aF1.7
aF20.1
aF-0.36666666666666714
aF-7.600000000000001
aF5.75
aF2.9333333333333336
aF5.333333333333334
aF6.509999999999998
aF4.533333333333333
aF5.366666666666667
aF2.989999999999995
aF6.733333333333334
aF6.739999999999995
aF-1.7333333333333325
aF5.100000000000001
aF3.3666666666666636
aF3.3599999999999994
aF2.0
aF3.0999999999999996
aF-1.166666666666667
aF2.3
aF-2.0666666666666664
aF26.210526315789473
aF55.86842105263158
aF46.91
aF5.368421052631579
aF14.763157894736842
aF36.36
aF15.078947368421053
aF22.894736842105264
aF65.86
aF72.86842105263158
aF72.87
aF12.236842105263158
aF25.894736842105264
aF38.13157894736842
aF38.13
aF15.105263157894736
aF10.18421052631579
aF5.868421052631579
aF4.552631578947368
aF16.57894736842105
aF20.42105263157895
aF53.71052631578947
aF38.02
aF4.552631578947368
aF14.236842105263158
aF31.98
aF13.157894736842104
aF18.36842105263158
aF71.63
aF58.55263157894737
aF58.55
aF9.710526315789474
aF21.36842105263158
aF31.07894736842105
aF31.08
aF9.131578947368421
aF12.394736842105264
aF4.684210526315789
aF3.1052631578947367
aF18.394736842105264
aF5.789473684210524
aF2.1578947368421098
aF8.889999999999993
aF0.8157894736842106
aF0.526315789473685
aF4.379999999999999
aF1.9210526315789487
aF4.526315789473685
aF-5.769999999999996
aF14.315789473684205
aF14.320000000000007
aF2.526315789473683
aF4.526315789473685
aF7.052631578947366
aF7.050000000000004
aF5.973684210526315
aF-2.2105263157894743
aF1.1842105263157894
aF1.4473684210526314
aF-1.8157894736842124
aa(lp22
F25.91176470588235
aF53.23529411764706
aF48.67
aF9.264705882352942
aF23.735294117647058
aF39.03
aF17.647058823529413
aF23.470588235294116
aF75.19
aF78.73529411764706
aF78.74
aF7.147058823529412
aF18.852941176470587
aF26.0
aF26.0
aF14.647058823529411
aF10.558823529411764
aF8.794117647058824
aF1.9705882352941178
aF20.794117647058822
aF23.323529411764707
aF47.970588235294116
aF48.62
aF6.0
aF16.970588235294116
aF35.36
aF18.264705882352942
aF25.88235294117647
aF70.57
aF70.91176470588235
aF70.91
aF9.558823529411764
aF23.08823529411765
aF32.64705882352941
aF32.65
aF13.352941176470589
aF16.88235294117647
aF5.4411764705882355
aF3.323529411764706
aF19.735294117647058
aF2.588235294117645
aF5.264705882352942
aF0.05000000000000426
aF3.264705882352942
aF6.764705882352942
aF3.6700000000000017
aF-0.617647058823529
aF-2.411764705882355
aF4.6200000000000045
aF7.82352941176471
aF7.829999999999998
aF-2.4117647058823524
aF-4.2352941176470615
aF-6.647058823529413
aF-6.649999999999999
aF1.2941176470588225
aF-6.3235294117647065
aF3.3529411764705888
aF-1.3529411764705883
aF1.0588235294117645
aF27.285714285714285
aF55.34285714285714
aF49.3
aF5.4
aF15.885714285714286
aF33.99
aF19.0
aF26.714285714285715
aF71.12
aF78.97142857142858
aF78.97
aF11.885714285714286
aF26.285714285714285
aF38.17142857142857
aF38.17
aF14.942857142857143
aF13.228571428571428
aF5.828571428571428
aF5.6
aF20.914285714285715
aF23.285714285714285
aF56.02857142857143
aF41.56
aF6.257142857142857
aF17.62857142857143
aF35.49
aF17.285714285714285
aF25.485714285714284
aF67.83
aF70.11428571428571
aF70.11
aF10.657142857142857
aF20.0
aF30.65714285714286
aF30.66
aF11.942857142857143
aF11.314285714285715
aF6.628571428571429
aF3.1714285714285713
aF21.2
aF4.0
aF-0.6857142857142904
aF7.739999999999995
aF-0.8571428571428568
aF-1.7428571428571438
aF-1.5
aF1.7142857142857153
aF1.2285714285714313
aF3.2900000000000063
aF8.857142857142861
aF8.86
aF1.2285714285714295
aF6.285714285714285
aF7.5142857142857125
aF7.510000000000002
aF3.0
aF1.9142857142857128
aF-0.8000000000000007
aF2.4285714285714284
aF-0.2857142857142847
aa(lp23
F24.91176470588235
aF53.88235294117647
aF46.23
aF5.411764705882353
aF16.029411764705884
aF33.76
aF18.676470588235293
aF25.647058823529413
aF72.82
aF73.91176470588235
aF73.91
aF11.852941176470589
aF23.352941176470587
aF35.205882352941174
aF35.21
aF14.647058823529411
aF11.441176470588236
aF7.705882352941177
aF4.029411764705882
aF19.41176470588235
aF19.352941176470587
aF50.76470588235294
aF38.12
aF5.470588235294118
aF18.176470588235293
aF30.1
aF15.323529411764707
aF22.147058823529413
aF69.19
aF59.5
aF59.5
aF11.235294117647058
aF20.529411764705884
aF31.764705882352942
aF31.76
aF9.647058823529411
aF15.705882352941176
aF5.5
aF4.205882352941177
aF19.764705882352942
aF5.5588235294117645
aF3.117647058823529
aF8.11
aF-0.0588235294117645
aF-2.1470588235294095
aF3.6599999999999966
aF3.352941176470587
aF3.5
aF3.6299999999999955
aF14.411764705882348
aF14.409999999999997
aF0.6176470588235308
aF2.823529411764703
aF3.441176470588232
aF3.4499999999999993
aF5.0
aF-4.26470588235294
aF2.2058823529411766
aF-0.17647058823529438
aF-0.35294117647059053
aF29.5
aF62.19444444444444
aF47.43
aF8.36111111111111
aF23.333333333333332
aF35.83
aF15.666666666666666
aF22.61111111111111
aF69.29
aF83.02777777777777
aF83.03
aF10.416666666666666
aF28.11111111111111
aF38.52777777777778
aF38.53
aF18.416666666666668
aF10.555555555555555
aF5.944444444444445
aF2.9444444444444446
aF17.305555555555557
aF26.5
aF63.111111111111114
aF41.99
aF7.194444444444445
aF21.11111111111111
aF34.08
aF14.194444444444445
aF19.38888888888889
aF73.21
aF74.38888888888889
aF74.39
aF11.194444444444445
aF25.72222222222222
aF36.916666666666664
aF36.92
aF13.222222222222221
aF11.61111111111111
aF5.472222222222222
aF3.4444444444444446
aF19.38888888888889
aF3.0
aF-0.9166666666666714
aF5.439999999999998
aF1.166666666666666
aF2.2222222222222214
aF1.75
aF1.4722222222222214
aF3.2222222222222214
aF-3.9199999999999875
aF8.638888888888886
aF8.64
aF-0.7777777777777786
aF2.3888888888888893
aF1.6111111111111143
aF1.6099999999999994
aF5.194444444444446
aF-1.0555555555555554
aF0.4722222222222223
aF-0.5
aF-2.083333333333332
aa(lp24
F26.34285714285714
aF56.91428571428571
aF46.29
aF7.085714285714285
aF20.514285714285716
aF34.54
aF16.257142857142856
aF22.857142857142858
aF71.12
aF76.02857142857142
aF76.03
aF12.885714285714286
aF21.0
aF33.885714285714286
aF33.89
aF16.4
aF11.228571428571428
aF7.3428571428571425
aF2.9714285714285715
aF20.857142857142858
aF21.314285714285713
aF46.94285714285714
aF45.4
aF4.228571428571429
aF12.314285714285715
aF34.34
aF16.542857142857144
aF24.0
aF68.93
aF63.4
aF63.4
aF8.371428571428572
aF20.714285714285715
aF29.085714285714285
aF29.09
aF10.314285714285715
aF15.857142857142858
aF5.142857142857143
aF3.4857142857142858
aF20.285714285714285
aF5.0285714285714285
aF9.971428571428568
aF0.8900000000000006
aF2.8571428571428568
aF8.200000000000001
aF0.19999999999999574
aF-0.28571428571428825
aF-1.1428571428571423
aF2.1899999999999977
aF12.628571428571426
aF12.630000000000003
aF4.514285714285714
aF0.2857142857142847
aF4.800000000000001
aF4.800000000000001
aF6.085714285714284
aF-4.62857142857143
aF2.1999999999999993
aF-0.5142857142857142
aF0.571428571428573
aF26.34285714285714
aF62.74285714285714
aF41.99
aF7.428571428571429
aF21.257142857142856
aF34.95
aF14.857142857142858
aF22.057142857142857
aF67.36
aF74.97142857142858
aF74.97
aF14.057142857142857
aF23.571428571428573
aF37.628571428571426
aF37.63
aF13.114285714285714
aF12.228571428571428
aF11.17142857142857
aF4.285714285714286
aF19.6
aF23.085714285714285
aF53.4
aF43.23
aF4.857142857142857
aF16.02857142857143
aF30.3
aF14.17142857142857
aF21.2
aF66.85
aF65.2
aF65.2
aF10.514285714285714
aF26.17142857142857
aF36.68571428571428
aF36.69
aF11.2
aF18.228571428571428
aF5.914285714285715
aF4.142857142857143
aF19.285714285714285
aF3.2571428571428562
aF9.342857142857142
aF-1.2399999999999949
aF2.571428571428572
aF5.228571428571428
aF4.650000000000002
aF0.6857142857142868
aF0.8571428571428577
aF0.5100000000000051
aF9.771428571428572
aF9.769999999999996
aF3.5428571428571427
aF-2.599999999999998
aF0.9428571428571431
aF0.9400000000000048
aF1.9142857142857146
aF-6.0
aF5.257142857142856
aF0.14285714285714235
aF0.3142857142857167
aa(lp25
F24.558823529411764
aF55.85294117647059
aF43.97
aF5.794117647058823
aF17.735294117647058
aF32.67
aF17.764705882352942
aF26.294117647058822
aF67.56
aF72.67647058823529
aF72.68
aF10.823529411764707
aF25.38235294117647
aF36.205882352941174
aF36.21
aF12.558823529411764
aF11.588235294117647
aF6.823529411764706
aF3.735294117647059
aF21.323529411764707
aF21.794117647058822
aF53.8235294117647
aF40.49
aF6.411764705882353
aF18.235294117647058
aF35.16
aF17.61764705882353
aF25.558823529411764
aF68.93
aF67.61764705882354
aF67.62
aF10.676470588235293
aF25.029411764705884
aF35.705882352941174
aF35.71
aF10.941176470588236
aF14.029411764705882
aF5.882352941176471
aF3.2058823529411766
aF21.352941176470587
aF2.764705882352942
aF2.029411764705884
aF3.479999999999997
aF-0.6176470588235299
aF-0.5
aF-2.489999999999995
aF0.14705882352941302
aF0.735294117647058
aF-1.3700000000000045
aF5.058823529411754
aF5.060000000000002
aF0.14705882352941302
aF0.352941176470587
aF0.5
aF0.5
aF1.617647058823529
aF-2.4411764705882355
aF0.9411764705882346
aF0.5294117647058822
aF-0.029411764705880472
aF29.0
aF59.351351351351354
aF48.86
aF6.1891891891891895
aF16.2972972972973
aF37.98
aF16.972972972972972
aF22.675675675675677
aF74.85
aF81.16216216216216
aF81.16
aF9.945945945945946
aF25.405405405405407
aF35.351351351351354
aF35.35
aF17.18918918918919
aF10.243243243243244
aF9.216216216216216
aF3.0
aF17.62162162162162
aF24.27027027027027
aF56.83783783783784
aF42.7
aF8.135135135135135
aF23.62162162162162
aF34.44
aF13.702702702702704
aF20.27027027027027
aF67.6
aF70.37837837837837
aF70.38
aF10.18918918918919
aF23.45945945945946
aF33.648648648648646
aF33.65
aF13.756756756756756
aF14.297297297297296
aF5.243243243243243
aF2.675675675675676
aF18.37837837837838
aF4.72972972972973
aF2.513513513513516
aF6.159999999999997
aF-1.9459459459459456
aF-7.324324324324323
aF3.539999999999999
aF3.2702702702702684
aF2.405405405405407
aF7.25
aF10.78378378378379
aF10.780000000000001
aF-0.24324324324324387
aF1.9459459459459474
aF1.7027027027027088
aF1.7000000000000028
aF3.4324324324324333
aF-4.054054054054053
aF3.972972972972973
aF0.3243243243243241
aF-0.7567567567567579
aa(lp26
F25.424242424242426
aF54.90909090909091
aF46.3
aF5.666666666666667
aF15.575757575757576
aF36.38
aF16.666666666666668
aF25.575757575757574
aF65.17
aF73.18181818181819
aF73.18
aF11.93939393939394
aF25.303030303030305
aF37.24242424242424
aF37.24
aF13.969696969696969
aF12.969696969696969
aF7.121212121212121
aF4.090909090909091
aF18.03030303030303
aF23.87878787878788
aF57.42424242424242
aF41.58
aF6.484848484848484
aF20.757575757575758
aF31.24
aF12.757575757575758
aF19.151515151515152
aF66.61
aF67.0
aF67.0
aF11.606060606060606
aF22.12121212121212
aF33.72727272727273
aF33.73
aF12.484848484848484
aF13.393939393939394
aF6.787878787878788
aF3.5454545454545454
aF21.727272727272727
aF1.5454545454545467
aF-2.5151515151515156
aF4.719999999999999
aF-0.8181818181818175
aF-5.181818181818182
aF5.140000000000004
aF3.90909090909091
aF6.424242424242422
aF-1.4399999999999977
aF6.181818181818187
aF6.180000000000007
aF0.3333333333333339
aF3.1818181818181834
aF3.5151515151515156
aF3.510000000000005
aF1.4848484848484844
aF-0.42424242424242564
aF0.33333333333333304
aF0.5454545454545454
aF-3.6969696969696955
aF28.176470588235293
aF59.088235294117645
aF47.69
aF5.352941176470588
aF16.235294117647058
aF32.97
aF15.176470588235293
aF23.558823529411764
aF64.42
aF76.88235294117646
aF76.88
aF12.558823529411764
aF24.735294117647058
aF37.294117647058826
aF37.29
aF17.38235294117647
aF13.205882352941176
aF8.647058823529411
aF4.676470588235294
aF18.0
aF26.11764705882353
aF59.6764705882353
aF43.77
aF5.294117647058823
aF17.205882352941178
aF30.77
aF12.970588235294118
aF20.029411764705884
aF64.76
aF70.5
aF70.5
aF12.382352941176471
aF22.676470588235293
aF35.05882352941177
aF35.06
aF13.323529411764707
aF14.411764705882353
aF7.911764705882353
aF3.9705882352941178
aF19.970588235294116
aF2.0588235294117645
aF-0.5882352941176521
aF3.9199999999999946
aF0.0588235294117645
aF-0.9705882352941195
aF2.1999999999999993
aF2.2058823529411757
aF3.5294117647058805
aF-0.3400000000000034
aF6.382352941176464
aF6.3799999999999955
aF0.1764705882352935
aF2.0588235294117645
aF2.235294117647058
aF2.229999999999997
aF4.0588235294117645
aF-1.2058823529411775
aF0.735294117647058
aF0.7058823529411766
aF-1.970588235294116
aa(lp27
F25.323529411764707
aF57.911764705882355
aF43.73
aF6.235294117647059
aF18.470588235294116
aF33.76
aF15.411764705882353
aF22.294117647058822
aF69.13
aF72.29411764705883
aF72.29
aF12.764705882352942
aF26.529411764705884
aF39.294117647058826
aF39.29
aF10.647058823529411
aF13.911764705882353
aF6.352941176470588
aF2.823529411764706
aF19.647058823529413
aF22.88235294117647
aF56.88235294117647
aF40.23
aF7.764705882352941
aF24.176470588235293
aF32.12
aF14.882352941176471
aF21.470588235294116
aF69.32
aF68.41176470588235
aF68.41
aF10.941176470588236
aF23.61764705882353
aF34.55882352941177
aF34.56
aF11.676470588235293
aF12.941176470588236
aF7.0588235294117645
aF4.0
aF19.08823529411765
aF2.4411764705882355
aF1.029411764705884
aF3.5
aF-1.5294117647058822
aF-5.7058823529411775
aF1.6400000000000006
aF0.5294117647058822
aF0.8235294117647065
aF-0.18999999999999773
aF3.882352941176478
aF3.8800000000000097
aF1.8235294117647065
aF2.911764705882355
aF4.735294117647058
aF4.729999999999997
aF-1.0294117647058822
aF0.9705882352941178
aF-0.7058823529411766
aF-1.176470588235294
aF0.5588235294117645
aF23.10810810810811
aF50.91891891891892
aF45.38
aF5.5675675675675675
aF15.108108108108109
aF36.85
aF14.405405405405405
aF21.405405405405407
aF67.3
aF66.1891891891892
aF66.19
aF10.567567567567568
aF24.89189189189189
aF35.45945945945946
aF35.46
aF13.08108108108108
aF10.0
aF5.216216216216216
aF4.054054054054054
aF16.054054054054053
aF19.64864864864865
aF50.67567567567568
aF38.77
aF5.486486486486487
aF17.0
aF32.27
aF10.891891891891891
aF16.45945945945946
aF66.17
aF55.67567567567568
aF55.68
aF8.675675675675675
aF20.64864864864865
aF29.324324324324323
aF29.32
aF10.08108108108108
aF11.162162162162161
aF5.162162162162162
aF3.4054054054054053
aF18.27027027027027
aF3.4594594594594597
aF0.2432432432432421
aF6.609999999999999
aF0.0810810810810807
aF-1.8918918918918912
aF4.579999999999998
aF3.513513513513514
aF4.945945945945947
aF1.1299999999999955
aF10.513513513513516
aF10.509999999999998
aF1.891891891891893
aF4.243243243243242
aF6.135135135135137
aF6.140000000000001
aF3.0
aF-1.1621621621621614
aF0.0540540540540535
aF0.6486486486486491
aF-2.2162162162162176
aa(lp28
F24.88888888888889
aF54.166666666666664
aF45.95
aF5.777777777777778
aF15.86111111111111
aF36.43
aF17.11111111111111
aF24.36111111111111
aF70.24
aF72.66666666666667
aF72.67
aF9.63888888888889
aF25.27777777777778
aF34.916666666666664
aF34.92
aF11.527777777777779
aF11.36111111111111
aF5.305555555555555
aF4.277777777777778
aF18.194444444444443
aF23.444444444444443
aF55.72222222222222
aF42.07
aF6.583333333333333
aF18.88888888888889
aF34.85
aF14.777777777777779
aF20.63888888888889
aF71.6
aF68.25
aF68.25
aF9.86111111111111
aF23.27777777777778
aF33.138888888888886
aF33.14
aF13.305555555555555
aF11.472222222222221
aF5.444444444444445
aF2.4722222222222223
aF20.72222222222222
aF1.4444444444444464
aF-1.5555555555555571
aF3.8800000000000026
aF-0.8055555555555554
aF-3.0277777777777786
aF1.5799999999999983
aF2.333333333333332
aF3.7222222222222214
aF-1.3599999999999994
aF4.416666666666671
aF4.420000000000002
aF-0.22222222222222143
aF2.0
aF1.7777777777777786
aF1.7800000000000011
aF-1.7777777777777768
aF-0.11111111111111072
aF-0.13888888888888928
aF1.8055555555555554
aF-2.5277777777777786
aF24.91176470588235
aF54.44117647058823
aF45.76
aF5.794117647058823
aF17.441176470588236
aF33.22
aF18.38235294117647
aF25.41176470588235
aF72.34
aF74.0
aF74.0
aF10.588235294117647
aF27.529411764705884
aF38.11764705882353
aF38.12
aF15.352941176470589
aF10.588235294117647
aF4.764705882352941
aF5.0588235294117645
aF16.970588235294116
aF22.823529411764707
aF58.6764705882353
aF38.9
aF7.147058823529412
aF20.558823529411764
aF34.76
aF13.323529411764707
aF18.38235294117647
aF72.48
aF66.11764705882354
aF66.12
aF10.823529411764707
aF22.0
aF32.8235294117647
aF32.82
aF11.411764705882353
aF9.941176470588236
aF5.676470588235294
aF2.911764705882353
aF20.676470588235293
aF2.088235294117645
aF-4.235294117647065
aF6.859999999999999
aF-1.3529411764705888
aF-3.117647058823529
aF-1.5399999999999991
aF5.0588235294117645
aF7.0294117647058805
aF-0.14000000000000057
aF7.882352941176464
aF7.8799999999999955
aF-0.23529411764705976
aF5.529411764705884
aF5.294117647058826
aF5.299999999999997
aF3.9411764705882355
aF0.6470588235294112
aF-0.9117647058823533
aF2.1470588235294117
aF-3.7058823529411775
aa(lp29
F22.46875
aF52.625
aF42.7
aF5.875
aF17.625
aF33.33
aF15.96875
aF22.28125
aF71.67
aF66.78125
aF66.78
aF8.6875
aF24.40625
aF33.09375
aF33.09
aF9.5
aF10.90625
aF6.9375
aF3.09375
aF20.625
aF21.75
aF51.8125
aF41.98
aF5.8125
aF18.4375
aF31.53
aF15.84375
aF23.25
aF68.15
aF65.15625
aF65.16
aF9.96875
aF25.0625
aF35.03125
aF35.03
aF11.0625
aF12.40625
aF5.25
aF3.15625
aF18.8125
aF0.71875
aF0.8125
aF0.720000000000006
aF0.0625
aF-0.8125
aF1.7999999999999972
aF0.125
aF-0.96875
aF3.519999999999996
aF1.625
aF1.6200000000000045
aF-1.28125
aF-0.65625
aF-1.9375
aF-1.9399999999999977
aF-1.5625
aF-1.5
aF1.6875
aF-0.0625
aF1.8125
aF25.236842105263158
aF55.5
aF45.47
aF7.368421052631579
aF19.07894736842105
aF38.62
aF16.973684210526315
aF24.92105263157895
aF68.11
aF74.8157894736842
aF74.82
aF13.81578947368421
aF24.5
aF38.31578947368421
aF38.32
aF14.81578947368421
aF11.578947368421053
aF5.184210526315789
aF5.342105263157895
aF17.05263157894737
aF24.394736842105264
aF57.31578947368421
aF42.56
aF6.7894736842105265
aF19.236842105263158
aF35.29
aF12.236842105263158
aF18.105263157894736
aF67.59
aF67.8157894736842
aF67.82
aF11.368421052631579
aF20.210526315789473
aF31.57894736842105
aF31.58
aF14.894736842105264
aF10.368421052631579
aF5.342105263157895
aF2.8421052631578947
aF19.157894736842106
aF0.8421052631578938
aF-1.8157894736842124
aF2.9099999999999966
aF0.5789473684210522
aF-0.1578947368421062
aF3.3299999999999983
aF4.7368421052631575
aF6.815789473684212
aF0.519999999999996
aF7.0
aF7.0
aF2.447368421052632
aF4.289473684210527
aF6.736842105263161
aF6.740000000000002
aF-0.0789473684210531
aF1.2105263157894743
aF-0.1578947368421053
aF2.5
aF-2.1052631578947363
aa(lp30
F26.41176470588235
aF57.088235294117645
aF46.26
aF7.029411764705882
aF19.294117647058822
aF36.43
aF20.38235294117647
aF28.352941176470587
aF71.89
aF80.23529411764706
aF80.24
aF9.764705882352942
aF25.61764705882353
aF35.38235294117647
aF35.38
aF13.617647058823529
aF10.470588235294118
aF7.647058823529412
aF4.705882352941177
aF20.0
aF23.558823529411764
aF57.55882352941177
aF40.93
aF6.205882352941177
aF18.970588235294116
aF32.71
aF16.235294117647058
aF23.61764705882353
aF68.74
aF69.55882352941177
aF69.56
aF12.029411764705882
aF25.08823529411765
aF37.11764705882353
aF37.12
aF10.970588235294118
aF14.235294117647058
aF6.117647058823529
aF3.6176470588235294
aF21.647058823529413
aF2.852941176470587
aF-0.4705882352941231
aF5.329999999999998
aF0.8235294117647056
aF0.3235294117647065
aF3.719999999999999
aF4.147058823529413
aF4.735294117647058
aF3.1500000000000057
aF10.67647058823529
aF10.679999999999993
aF-2.2647058823529402
aF0.5294117647058805
aF-1.735294117647058
aF-1.7399999999999949
aF2.6470588235294112
aF-3.7647058823529402
aF1.5294117647058831
aF1.0882352941176472
aF-1.647058823529413
aF27.0
aF54.52777777777778
aF49.52
aF7.083333333333333
aF17.86111111111111
aF39.66
aF15.61111111111111
aF22.02777777777778
aF70.87
aF76.69444444444444
aF76.69
aF9.527777777777779
aF26.333333333333332
aF35.861111111111114
aF35.86
aF14.583333333333334
aF11.63888888888889
aF6.527777777777778
aF3.9444444444444446
aF18.305555555555557
aF22.38888888888889
aF56.30555555555556
aF39.76
aF5.638888888888889
aF17.75
aF31.77
aF15.472222222222221
aF21.77777777777778
aF71.05
aF65.88888888888889
aF65.89
aF11.083333333333334
aF21.63888888888889
aF32.72222222222222
aF32.72
aF10.555555555555555
aF11.722222222222221
aF5.833333333333333
aF3.111111111111111
aF19.88888888888889
aF4.611111111111111
aF-1.7777777777777786
aF9.760000000000005
aF1.4444444444444438
aF0.11111111111111072
aF7.889999999999997
aF0.13888888888888928
aF0.25
aF-0.1799999999999926
aF10.805555555555557
aF10.799999999999997
aF-1.5555555555555554
aF4.694444444444443
aF3.138888888888893
aF3.1400000000000006
aF4.027777777777779
aF-0.08333333333333215
aF0.6944444444444446
aF0.8333333333333335
aF-1.5833333333333321
aa(lp31
F27.27777777777778
aF57.25
aF47.65
aF8.055555555555555
aF21.0
aF38.36
aF16.166666666666668
aF21.97222222222222
aF73.58
aF78.77777777777777
aF78.78
aF11.305555555555555
aF25.86111111111111
aF37.166666666666664
aF37.17
aF16.27777777777778
aF11.666666666666666
aF5.861111111111111
aF4.083333333333333
aF18.47222222222222
aF22.555555555555557
aF56.19444444444444
aF40.14
aF6.555555555555555
aF21.63888888888889
aF30.3
aF15.277777777777779
aF21.86111111111111
aF69.89
aF66.94444444444444
aF66.94
aF11.083333333333334
aF21.97222222222222
aF33.05555555555556
aF33.06
aF12.055555555555555
aF12.555555555555555
aF5.583333333333333
aF3.0833333333333335
aF19.38888888888889
aF4.722222222222221
aF1.0555555555555571
aF7.509999999999998
aF1.5
aF-0.6388888888888893
aF8.059999999999999
aF0.8888888888888893
aF0.11111111111111072
aF3.6899999999999977
aF11.833333333333329
aF11.840000000000003
aF0.22222222222222143
aF3.8888888888888893
aF4.111111111111107
aF4.109999999999999
aF4.222222222222223
aF-0.8888888888888893
aF0.2777777777777777
aF0.9999999999999996
aF-0.9166666666666679
aF26.542857142857144
aF57.714285714285715
aF45.99
aF9.028571428571428
aF22.885714285714286
aF39.45
aF16.314285714285713
aF22.37142857142857
aF72.92
aF78.42857142857143
aF78.43
aF12.114285714285714
aF22.37142857142857
aF34.48571428571429
aF34.49
aF14.542857142857143
aF9.542857142857143
aF6.9714285714285715
aF3.0
aF19.457142857142856
aF24.228571428571428
aF53.142857142857146
aF45.59
aF3.942857142857143
aF12.82857142857143
aF30.73
aF15.0
aF21.65714285714286
aF69.26
aF67.4
aF67.4
aF10.2
aF22.285714285714285
aF32.48571428571429
aF32.49
aF10.857142857142858
aF12.142857142857142
aF4.9714285714285715
aF3.342857142857143
aF18.714285714285715
aF2.3142857142857167
aF4.571428571428569
aF0.3999999999999986
aF5.085714285714285
aF10.057142857142857
aF8.720000000000002
aF1.3142857142857132
aF0.7142857142857117
aF3.6599999999999966
aF11.028571428571425
aF11.030000000000001
aF1.9142857142857146
aF0.08571428571428541
aF2.0
aF2.0
aF3.685714285714285
aF-2.5999999999999996
aF2.0
aF-0.34285714285714297
aF0.7428571428571402
aa(lp32
F25.054054054054053
aF55.351351351351354
aF45.26
aF5.54054054054054
aF17.054054054054053
aF32.49
aF16.56756756756757
aF23.027027027027028
aF71.95
aF72.21621621621621
aF72.22
aF13.54054054054054
aF24.945945945945947
aF38.486486486486484
aF38.49
aF12.756756756756756
aF10.486486486486486
aF5.1891891891891895
aF4.648648648648648
aF16.675675675675677
aF22.243243243243242
aF53.810810810810814
aF41.34
aF5.1891891891891895
aF15.027027027027026
aF34.53
aF12.027027027027026
aF17.054054054054053
aF70.52
aF61.7027027027027
aF61.7
aF9.486486486486486
aF20.45945945945946
aF29.945945945945947
aF29.95
aF10.162162162162161
aF10.783783783783784
aF5.243243243243243
aF3.6216216216216215
aF19.72972972972973
aF2.8108108108108105
aF1.5405405405405403
aF3.9199999999999946
aF0.35135135135135087
aF2.0270270270270263
aF-2.039999999999999
aF4.540540540540542
aF5.9729729729729755
aF1.4300000000000068
aF10.513513513513509
aF10.519999999999996
aF4.054054054054054
aF4.486486486486488
aF8.540540540540537
aF8.540000000000003
aF2.5945945945945947
aF-0.29729729729729826
aF-0.0540540540540535
aF1.0270270270270268
aF-3.0540540540540526
aF27.272727272727273
aF59.42424242424242
aF45.89
aF5.363636363636363
aF15.515151515151516
aF34.57
aF15.909090909090908
aF23.303030303030305
aF68.27
aF75.81818181818181
aF75.82
aF12.242424242424242
aF26.151515151515152
aF38.39393939393939
aF38.39
aF15.090909090909092
aF13.515151515151516
aF6.848484848484849
aF5.393939393939394
aF19.666666666666668
aF25.545454545454547
aF60.15151515151515
aF42.47
aF5.0
aF16.21212121212121
aF30.84
aF15.121212121212121
aF22.393939393939394
aF67.52
aF71.21212121212122
aF71.21
aF12.121212121212121
aF23.424242424242426
aF35.54545454545455
aF35.55
aF14.151515151515152
aF13.484848484848484
aF6.181818181818182
aF5.515151515151516
aF19.484848484848484
aF1.7272727272727266
aF-0.7272727272727266
aF3.4200000000000017
aF0.3636363636363633
aF-0.6969696969696955
aF3.7300000000000004
aF0.7878787878787872
aF0.9090909090909101
aF0.75
aF4.606060606060595
aF4.609999999999999
aF0.1212121212121211
aF2.7272727272727266
aF2.848484848484844
aF2.8400000000000034
aF0.9393939393939394
aF0.030303030303031164
aF0.666666666666667
aF-0.12121212121212199
aF0.18181818181818343
aa(lp33
F24.59375
aF52.90625
aF46.49
aF5.75
aF14.96875
aF38.41
aF18.28125
aF25.28125
aF72.31
aF73.21875
aF73.22
aF10.46875
aF23.65625
aF34.125
aF34.12
aF14.09375
aF11.40625
aF7.59375
aF4.84375
aF17.6875
aF21.25
aF52.03125
aF40.84
aF5.125
aF15.96875
aF32.09
aF13.375
aF18.84375
aF70.98
aF61.0
aF61.0
aF9.9375
aF21.4375
aF31.375
aF31.38
aF10.6875
aF14.34375
aF5.78125
aF3.5625
aF20.8125
aF3.34375
aF0.875
aF5.649999999999999
aF0.625
aF-1.0
aF6.319999999999993
aF4.90625
aF6.4375
aF1.3299999999999983
aF12.21875
aF12.219999999999999
aF0.53125
aF2.21875
aF2.75
aF2.7399999999999984
aF3.40625
aF-2.9375
aF1.8125
aF1.28125
aF-3.125
aF26.94736842105263
aF56.81578947368421
aF47.43
aF8.078947368421053
aF20.605263157894736
aF39.21
aF13.552631578947368
aF19.157894736842106
aF70.74
aF75.52631578947368
aF75.53
aF10.763157894736842
aF26.07894736842105
aF36.8421052631579
aF36.84
aF16.763157894736842
aF11.578947368421053
aF6.815789473684211
aF4.578947368421052
aF18.973684210526315
aF21.5
aF54.1578947368421
aF39.7
aF6.631578947368421
aF20.0
aF33.16
aF15.921052631578947
aF21.81578947368421
aF72.98
aF65.55263157894737
aF65.55
aF9.868421052631579
aF21.92105263157895
aF31.789473684210527
aF31.79
aF10.657894736842104
aF11.81578947368421
aF5.631578947368421
aF2.8947368421052633
aF17.605263157894736
aF5.44736842105263
aF2.6578947368421098
aF7.729999999999997
aF1.4473684210526319
aF0.6052631578947363
aF6.050000000000004
aF-2.3684210526315788
aF-2.6578947368421026
aF-2.240000000000009
aF9.973684210526315
aF9.980000000000004
aF0.8947368421052637
aF4.157894736842103
aF5.05263157894737
aF5.050000000000004
aF6.105263157894738
aF-0.23684210526315752
aF1.1842105263157894
aF1.684210526315789
aF1.3684210526315788
aa(lp34
F25.857142857142858
aF59.857142857142854
aF43.2
aF5.085714285714285
aF15.542857142857143
aF32.72
aF17.428571428571427
aF25.97142857142857
aF67.11
aF74.22857142857143
aF74.23
aF15.085714285714285
aF26.314285714285713
aF41.4
aF41.4
aF12.914285714285715
aF12.17142857142857
aF5.685714285714286
aF5.885714285714286
aF19.114285714285714
aF23.4
aF58.25714285714286
aF40.17
aF7.4
aF21.0
aF35.24
aF16.514285714285716
aF23.857142857142858
aF69.22
aF70.71428571428571
aF70.71
aF11.4
aF22.97142857142857
aF34.371428571428574
aF34.37
aF12.714285714285714
aF11.285714285714286
aF6.314285714285714
aF3.5142857142857142
aF20.37142857142857
aF2.457142857142859
aF1.5999999999999943
aF3.030000000000001
aF-2.314285714285715
aF-5.457142857142857
aF-2.520000000000003
aF0.914285714285711
aF2.114285714285714
aF-2.1099999999999994
aF3.5142857142857196
aF3.5200000000000102
aF3.685714285714285
aF3.3428571428571416
aF7.028571428571425
aF7.030000000000001
aF0.20000000000000107
aF0.8857142857142843
aF-0.6285714285714281
aF2.371428571428572
aF-1.2571428571428562
aF25.54054054054054
aF53.567567567567565
aF47.68
aF8.621621621621621
aF21.45945945945946
aF40.18
aF14.243243243243244
aF18.675675675675677
aF76.27
aF73.94594594594595
aF73.95
aF8.891891891891891
aF22.45945945945946
aF31.35135135135135
aF31.35
aF14.18918918918919
aF9.324324324324325
aF5.162162162162162
aF2.3783783783783785
aF14.243243243243244
aF24.45945945945946
aF55.0
aF44.47
aF5.4324324324324325
aF17.08108108108108
aF31.8
aF10.72972972972973
aF14.675675675675675
aF73.11
aF65.08108108108108
aF65.08
aF9.837837837837839
aF21.35135135135135
aF31.18918918918919
aF31.19
aF11.81081081081081
aF10.756756756756756
aF4.891891891891892
aF2.7027027027027026
aF16.91891891891892
aF1.0810810810810807
aF-1.4324324324324351
aF3.210000000000001
aF3.1891891891891886
aF4.378378378378379
aF8.379999999999999
aF3.513513513513514
aF4.000000000000002
aF3.1599999999999966
aF8.86486486486487
aF8.870000000000005
aF-0.9459459459459474
aF1.1081081081081088
aF0.1621621621621614
aF0.16000000000000014
aF2.378378378378379
aF-1.4324324324324316
aF0.2702702702702702
aF-0.3243243243243241
aF-2.6756756756756754
aa(lp35
F26.90909090909091
aF53.303030303030305
aF50.48
aF5.333333333333333
aF14.636363636363637
aF36.44
aF16.363636363636363
aF21.78787878787879
aF75.1
aF75.51515151515152
aF75.52
aF9.303030303030303
aF23.454545454545453
aF32.75757575757576
aF32.76
aF11.575757575757576
aF9.848484848484848
aF6.242424242424242
aF4.393939393939394
aF17.818181818181817
aF21.87878787878788
aF51.81818181818182
aF42.22
aF6.7272727272727275
aF18.181818181818183
aF37.0
aF15.090909090909092
aF20.12121212121212
aF75.0
aF65.57575757575758
aF65.58
aF8.727272727272727
aF19.96969696969697
aF28.696969696969695
aF28.7
aF11.151515151515152
aF11.515151515151516
aF5.090909090909091
aF1.9090909090909092
aF18.151515151515152
aF5.030303030303031
aF1.4848484848484844
aF8.259999999999998
aF-1.3939393939393945
aF-3.5454545454545467
aF-0.5600000000000023
aF1.2727272727272716
aF1.6666666666666679
aF0.09999999999999432
aF9.939393939393938
aF9.939999999999998
aF0.5757575757575761
aF3.4848484848484844
aF4.060606060606062
aF4.059999999999999
aF0.42424242424242387
aF-1.6666666666666679
aF1.1515151515151514
aF2.4848484848484844
aF-0.3333333333333357
aF24.25
aF55.80555555555556
aF43.45
aF5.166666666666667
aF14.416666666666666
aF35.84
aF16.61111111111111
aF25.055555555555557
aF66.3
aF70.27777777777777
aF70.28
aF13.055555555555555
aF24.833333333333332
aF37.888888888888886
aF37.89
aF9.88888888888889
aF9.86111111111111
aF7.611111111111111
aF5.083333333333333
aF16.666666666666668
aF20.38888888888889
aF52.888888888888886
aF38.55
aF4.833333333333333
aF16.77777777777778
aF28.81
aF11.38888888888889
aF16.86111111111111
aF67.55
aF57.0
aF57.0
aF10.277777777777779
aF22.5
aF32.77777777777778
aF32.78
aF9.916666666666666
aF13.61111111111111
aF4.277777777777778
aF4.194444444444445
aF19.583333333333332
aF3.8611111111111107
aF2.9166666666666714
aF4.900000000000006
aF0.3333333333333339
aF-2.3611111111111125
aF7.030000000000005
aF5.222222222222221
aF8.194444444444446
aF-1.25
aF13.277777777777771
aF13.280000000000001
aF2.777777777777777
aF2.333333333333332
aF5.111111111111107
aF5.109999999999999
aF-0.02777777777777679
aF-3.75
aF3.333333333333333
aF0.8888888888888884
aF-2.9166666666666643
aa(lp36
F24.484848484848484
aF55.03030303030303
aF44.49
aF5.757575757575758
aF17.757575757575758
aF32.42
aF15.666666666666666
aF22.393939393939394
aF69.96
aF70.39393939393939
aF70.39
aF10.181818181818182
aF26.21212121212121
aF36.39393939393939
aF36.39
aF14.303030303030303
aF12.515151515151516
aF7.393939393939394
aF4.181818181818182
aF17.515151515151516
aF22.21212121212121
aF55.333333333333336
aF40.14
aF4.03030303030303
aF14.06060606060606
aF28.66
aF13.333333333333334
aF19.424242424242426
aF68.64
aF61.78787878787879
aF61.79
aF10.424242424242424
aF24.272727272727273
aF34.696969696969695
aF34.7
aF10.303030303030303
aF14.121212121212121
aF7.121212121212121
aF4.454545454545454
aF19.303030303030305
aF2.2727272727272734
aF-0.30303030303030454
aF4.350000000000001
aF1.7272727272727275
aF3.6969696969696972
aF3.7600000000000016
aF2.333333333333332
aF2.969696969696969
aF1.3199999999999932
aF8.606060606060602
aF8.600000000000001
aF-0.2424242424242422
aF1.9393939393939377
aF1.6969696969696955
aF1.6899999999999977
aF4.0
aF-1.6060606060606055
aF0.2727272727272725
aF-0.2727272727272725
aF-1.787878787878789
aF28.405405405405407
aF60.32432432432432
aF47.09
aF7.783783783783784
aF21.16216216216216
aF36.78
aF16.43243243243243
aF24.864864864864863
aF66.09
aF81.02702702702703
aF81.03
aF13.594594594594595
aF24.135135135135137
aF37.729729729729726
aF37.73
aF15.35135135135135
aF10.567567567567568
aF10.0
aF4.675675675675675
aF19.54054054054054
aF21.243243243243242
aF53.5945945945946
aF39.64
aF4.594594594594595
aF16.054054054054053
aF28.62
aF14.0
aF20.56756756756757
aF68.07
aF61.13513513513514
aF61.14
aF11.72972972972973
aF23.0
aF34.729729729729726
aF34.73
aF10.45945945945946
aF17.243243243243242
aF4.5675675675675675
aF2.7837837837837838
aF20.405405405405407
aF7.162162162162165
aF6.729729729729726
aF7.450000000000003
aF3.1891891891891895
aF5.108108108108109
aF8.16
aF2.4324324324324316
aF4.297297297297295
aF-1.9799999999999898
aF19.891891891891895
aF19.89
aF1.864864864864865
aF1.1351351351351369
aF3.0
aF3.0
aF4.891891891891891
aF-6.675675675675674
aF5.4324324324324325
aF1.8918918918918917
aF-0.8648648648648667
aa(lp37
F24.86111111111111
aF54.0
aF46.04
aF5.083333333333333
aF14.5
aF35.06
aF17.02777777777778
aF23.916666666666668
aF71.2
aF71.83333333333333
aF71.83
aF12.0
aF23.86111111111111
aF35.861111111111114
aF35.86
aF15.63888888888889
aF10.36111111111111
aF7.055555555555555
aF2.9722222222222223
aF17.22222222222222
aF21.416666666666668
aF52.0
aF41.19
aF5.694444444444445
aF17.444444444444443
aF32.64
aF13.38888888888889
aF18.944444444444443
aF70.67
aF61.916666666666664
aF61.92
aF9.777777777777779
aF20.194444444444443
aF29.97222222222222
aF29.97
aF11.277777777777779
aF12.222222222222221
aF4.75
aF4.0
aF18.694444444444443
aF3.444444444444443
aF2.0
aF4.850000000000001
aF-0.6111111111111116
aF-2.944444444444443
aF2.4200000000000017
aF3.6388888888888893
aF4.972222222222225
aF0.5300000000000011
aF9.916666666666664
aF9.909999999999997
aF2.2222222222222214
aF3.666666666666668
aF5.888888888888893
aF5.890000000000001
aF4.361111111111111
aF-1.8611111111111107
aF2.3055555555555554
aF-1.0277777777777777
aF-1.4722222222222214
aF24.23076923076923
aF52.717948717948715
aF45.96
aF6.538461538461538
aF18.23076923076923
aF35.86
aF14.923076923076923
aF22.333333333333332
aF66.82
aF69.92307692307692
aF69.92
aF11.538461538461538
aF23.974358974358974
aF35.51282051282051
aF35.51
aF13.051282051282051
aF11.051282051282051
aF7.0256410256410255
aF3.0256410256410255
aF15.666666666666666
aF20.666666666666668
aF51.38461538461539
aF40.22
aF5.3076923076923075
aF16.102564102564102
aF32.96
aF11.128205128205128
aF16.05128205128205
aF69.33
aF57.76923076923077
aF57.77
aF9.487179487179487
aF21.05128205128205
aF30.53846153846154
aF30.54
aF9.897435897435898
aF13.487179487179487
aF5.615384615384615
aF3.076923076923077
aF18.94871794871795
aF3.564102564102562
aF1.3333333333333286
aF5.740000000000002
aF1.2307692307692308
aF2.1282051282051277
aF2.8999999999999986
aF3.7948717948717956
aF6.282051282051281
aF-2.510000000000005
aF12.153846153846153
aF12.149999999999999
aF2.051282051282051
aF2.9230769230769234
aF4.974358974358971
aF4.969999999999999
aF3.1538461538461533
aF-2.435897435897436
aF1.4102564102564106
aF-0.051282051282051544
aF-3.282051282051283
aa(lp38
F24.275
aF54.05
aF44.91
aF7.175
aF18.525
aF38.73
aF16.1
aF20.725
aF77.68
aF71.825
aF71.83
aF9.675
aF25.225
aF34.9
aF34.9
aF12.2
aF11.425
aF7.025
aF5.75
aF17.975
aF21.95
aF56.025
aF39.18
aF6.025
aF18.275
aF32.97
aF13.3
aF20.025
aF66.42
aF63.225
aF63.23
aF12.3
aF22.15
aF34.45
aF34.45
aF11.35
aF12.95
aF5.7
aF3.175
aF18.275
aF2.3249999999999993
aF-1.9750000000000014
aF5.729999999999997
aF1.1499999999999995
aF0.25
aF5.759999999999998
aF2.8000000000000007
aF0.7000000000000028
aF11.260000000000005
aF8.600000000000001
aF8.600000000000001
aF-2.625
aF3.075000000000003
aF0.44999999999999574
aF0.44999999999999574
aF0.8499999999999996
aF-1.5249999999999986
aF1.3250000000000002
aF2.575
aF-0.29999999999999716
aF25.58823529411765
aF56.088235294117645
aF45.62
aF8.941176470588236
aF25.147058823529413
aF35.56
aF17.852941176470587
aF24.941176470588236
aF71.58
aF77.97058823529412
aF77.97
aF11.147058823529411
aF26.0
aF37.14705882352941
aF37.15
aF15.382352941176471
aF11.941176470588236
aF6.9411764705882355
aF4.147058823529412
aF19.764705882352942
aF22.441176470588236
aF55.470588235294116
aF40.46
aF6.470588235294118
aF18.323529411764707
aF35.31
aF15.147058823529411
aF21.41176470588235
aF70.74
aF66.5
aF66.5
aF10.441176470588236
aF23.0
aF33.44117647058823
aF33.44
aF12.147058823529411
aF13.764705882352942
aF5.676470588235294
aF2.2941176470588234
aF20.352941176470587
aF3.147058823529413
aF0.617647058823529
aF5.159999999999997
aF2.4705882352941178
aF6.8235294117647065
aF0.25
aF2.7058823529411757
aF3.529411764705884
aF0.8400000000000034
aF11.470588235294116
aF11.469999999999999
aF0.7058823529411757
aF3.0
aF3.705882352941181
aF3.710000000000001
aF3.2352941176470598
aF-1.8235294117647065
aF1.2647058823529411
aF1.8529411764705888
aF-0.588235294117645
aa(lp39
F25.27027027027027
aF54.54054054054054
aF46.33
aF6.5675675675675675
aF17.405405405405407
aF37.73
aF15.08108108108108
aF22.135135135135137
aF68.13
aF72.1891891891892
aF72.19
aF11.18918918918919
aF23.64864864864865
aF34.83783783783784
aF34.84
aF13.108108108108109
aF11.945945945945946
aF6.0
aF2.5945945945945947
aF19.89189189189189
aF22.783783783783782
aF52.32432432432432
aF43.54
aF5.486486486486487
aF16.54054054054054
aF33.17
aF15.91891891891892
aF22.486486486486488
aF70.79
aF66.97297297297297
aF66.97
aF9.54054054054054
aF21.756756756756758
aF31.2972972972973
aF31.3
aF11.64864864864865
aF12.405405405405405
aF4.945945945945946
aF4.486486486486487
aF19.027027027027028
aF2.4864864864864877
aF2.2162162162162176
aF2.789999999999999
aF1.0810810810810807
aF0.8648648648648667
aF4.559999999999995
aF-0.8378378378378386
aF-0.35135135135135087
aF-2.660000000000011
aF5.216216216216225
aF5.219999999999999
aF1.6486486486486491
aF1.8918918918918912
aF3.5405405405405403
aF3.5400000000000027
aF1.4594594594594597
aF-0.45945945945945965
aF1.0540540540540544
aF-1.891891891891892
aF0.8648648648648631
aF24.08823529411765
aF55.088235294117645
aF43.73
aF4.911764705882353
aF14.852941176470589
aF33.07
aF14.882352941176471
aF21.029411764705884
aF70.77
aF67.97058823529412
aF67.97
aF13.117647058823529
aF22.176470588235293
aF35.294117647058826
aF35.29
aF11.823529411764707
aF9.0
aF7.970588235294118
aF5.029411764705882
aF16.058823529411764
aF20.147058823529413
aF49.088235294117645
aF41.04
aF6.852941176470588
aF19.88235294117647
aF34.47
aF12.029411764705882
aF18.0
aF66.83
aF59.1764705882353
aF59.18
aF10.176470588235293
aF21.352941176470587
aF31.529411764705884
aF31.53
aF12.882352941176471
aF13.382352941176471
aF4.294117647058823
aF3.0588235294117645
aF17.676470588235293
aF3.9411764705882355
aF6.0
aF2.6899999999999977
aF-1.9411764705882346
aF-5.029411764705882
aF-1.3999999999999986
aF2.8529411764705888
aF3.029411764705884
aF3.9399999999999977
aF8.794117647058819
aF8.79
aF2.9411764705882355
aF0.8235294117647065
aF3.764705882352942
aF3.759999999999998
aF-1.0588235294117645
aF-4.382352941176471
aF3.6764705882352944
aF1.9705882352941178
aF-1.617647058823529
aa(lp40
F27.294117647058822
aF58.14705882352941
aF46.94
aF7.617647058823529
aF19.58823529411765
aF38.89
aF19.647058823529413
aF25.441176470588236
aF77.23
aF81.8529411764706
aF81.85
aF10.470588235294118
aF23.647058823529413
aF34.11764705882353
aF34.12
aF14.470588235294118
aF11.441176470588236
aF7.735294117647059
aF3.323529411764706
aF21.323529411764707
aF24.647058823529413
aF56.088235294117645
aF43.94
aF5.823529411764706
aF17.970588235294116
aF32.41
aF19.029411764705884
aF26.823529411764707
aF70.94
aF74.1470588235294
aF74.15
aF11.088235294117647
aF22.0
aF33.088235294117645
aF33.09
aF12.470588235294118
aF13.470588235294118
aF4.882352941176471
aF3.676470588235294
aF20.5
aF2.6470588235294095
aF2.058823529411768
aF3.0
aF1.7941176470588234
aF1.6176470588235325
aF6.480000000000004
aF0.617647058823529
aF-1.382352941176471
aF6.290000000000006
aF7.705882352941188
aF7.699999999999989
aF-0.617647058823529
aF1.647058823529413
aF1.029411764705884
aF1.029999999999994
aF2.0
aF-2.0294117647058822
aF2.852941176470588
aF-0.35294117647058787
aF0.8235294117647065
aF24.394736842105264
aF53.10526315789474
aF45.94
aF7.815789473684211
aF20.789473684210527
aF37.59
aF16.894736842105264
aF22.657894736842106
aF74.56
aF73.5
aF73.5
aF8.868421052631579
aF24.44736842105263
aF33.31578947368421
aF33.32
aF12.31578947368421
aF8.078947368421053
aF4.815789473684211
aF3.3421052631578947
aF15.105263157894736
aF24.07894736842105
aF56.18421052631579
aF42.86
aF4.842105263157895
aF14.210526315789474
aF34.07
aF11.0
aF15.236842105263158
aF72.19
aF64.0
aF64.0
aF9.210526315789474
aF22.68421052631579
aF31.894736842105264
aF31.89
aF9.578947368421053
aF9.736842105263158
aF4.2368421052631575
aF2.763157894736842
aF20.07894736842105
aF0.3157894736842124
aF-3.0789473684210478
aF3.0799999999999983
aF2.973684210526316
aF6.578947368421053
aF3.520000000000003
aF5.894736842105264
aF7.421052631578949
aF2.3700000000000045
aF9.5
aF9.5
aF-0.3421052631578956
aF1.763157894736839
aF1.4210526315789487
aF1.4299999999999997
aF2.7368421052631575
aF-1.6578947368421044
aF0.5789473684210531
aF0.5789473684210527
aF-4.973684210526315
aa(lp41
F28.029411764705884
aF60.5
aF46.33
aF4.294117647058823
aF12.764705882352942
aF33.64
aF16.235294117647058
aF25.941176470588236
aF62.59
aF76.58823529411765
aF76.59
aF14.205882352941176
aF25.5
aF39.705882352941174
aF39.71
aF15.382352941176471
aF11.941176470588236
aF7.323529411764706
aF4.735294117647059
aF20.294117647058822
aF23.823529411764707
aF57.3235294117647
aF41.56
aF6.205882352941177
aF19.558823529411764
aF31.73
aF15.911764705882353
aF23.735294117647058
aF67.04
aF69.76470588235294
aF69.76
aF11.617647058823529
aF23.058823529411764
aF34.6764705882353
aF34.68
aF11.0
aF13.588235294117647
aF5.9411764705882355
aF4.0
aF21.08823529411765
aF4.2058823529411775
aF3.176470588235297
aF4.769999999999996
aF-1.9117647058823533
aF-6.7941176470588225
aF1.9100000000000001
aF0.32352941176470473
aF2.2058823529411775
aF-4.450000000000003
aF6.82352941176471
aF6.829999999999998
aF2.5882352941176467
aF2.4411764705882355
aF5.029411764705877
aF5.030000000000001
aF4.382352941176471
aF-1.6470588235294112
aF1.3823529411764701
aF0.7352941176470589
aF-0.794117647058826
aF29.5
aF62.19444444444444
aF47.43
aF8.36111111111111
aF23.333333333333332
aF35.83
aF15.666666666666666
aF22.61111111111111
aF69.29
aF83.02777777777777
aF83.03
aF10.416666666666666
aF28.11111111111111
aF38.52777777777778
aF38.53
aF18.416666666666668
aF10.555555555555555
aF5.944444444444445
aF2.9444444444444446
aF17.305555555555557
aF26.5
aF63.111111111111114
aF41.99
aF7.194444444444445
aF21.11111111111111
aF34.08
aF14.194444444444445
aF19.38888888888889
aF73.21
aF74.38888888888889
aF74.39
aF11.194444444444445
aF25.72222222222222
aF36.916666666666664
aF36.92
aF13.222222222222221
aF11.61111111111111
aF5.472222222222222
aF3.4444444444444446
aF19.38888888888889
aF3.0
aF-0.9166666666666714
aF5.439999999999998
aF1.166666666666666
aF2.2222222222222214
aF1.75
aF1.4722222222222214
aF3.2222222222222214
aF-3.9199999999999875
aF8.638888888888886
aF8.64
aF-0.7777777777777786
aF2.3888888888888893
aF1.6111111111111143
aF1.6099999999999994
aF5.194444444444446
aF-1.0555555555555554
aF0.4722222222222223
aF-0.5
aF-2.083333333333332
aa(lp42
F27.0
aF54.52777777777778
aF49.52
aF7.083333333333333
aF17.86111111111111
aF39.66
aF15.61111111111111
aF22.02777777777778
aF70.87
aF76.69444444444444
aF76.69
aF9.527777777777779
aF26.333333333333332
aF35.861111111111114
aF35.86
aF14.583333333333334
aF11.63888888888889
aF6.527777777777778
aF3.9444444444444446
aF18.305555555555557
aF22.38888888888889
aF56.30555555555556
aF39.76
aF5.638888888888889
aF17.75
aF31.77
aF15.472222222222221
aF21.77777777777778
aF71.05
aF65.88888888888889
aF65.89
aF11.083333333333334
aF21.63888888888889
aF32.72222222222222
aF32.72
aF10.555555555555555
aF11.722222222222221
aF5.833333333333333
aF3.111111111111111
aF19.88888888888889
aF4.611111111111111
aF-1.7777777777777786
aF9.760000000000005
aF1.4444444444444438
aF0.11111111111111072
aF7.889999999999997
aF0.13888888888888928
aF0.25
aF-0.1799999999999926
aF10.805555555555557
aF10.799999999999997
aF-1.5555555555555554
aF4.694444444444443
aF3.138888888888893
aF3.1400000000000006
aF4.027777777777779
aF-0.08333333333333215
aF0.6944444444444446
aF0.8333333333333335
aF-1.5833333333333321
aF26.210526315789473
aF55.86842105263158
aF46.91
aF5.368421052631579
aF14.763157894736842
aF36.36
aF15.078947368421053
aF22.894736842105264
aF65.86
aF72.86842105263158
aF72.87
aF12.236842105263158
aF25.894736842105264
aF38.13157894736842
aF38.13
aF15.105263157894736
aF10.18421052631579
aF5.868421052631579
aF4.552631578947368
aF16.57894736842105
aF20.42105263157895
aF53.71052631578947
aF38.02
aF4.552631578947368
aF14.236842105263158
aF31.98
aF13.157894736842104
aF18.36842105263158
aF71.63
aF58.55263157894737
aF58.55
aF9.710526315789474
aF21.36842105263158
aF31.07894736842105
aF31.08
aF9.131578947368421
aF12.394736842105264
aF4.684210526315789
aF3.1052631578947367
aF18.394736842105264
aF5.789473684210524
aF2.1578947368421098
aF8.889999999999993
aF0.8157894736842106
aF0.526315789473685
aF4.379999999999999
aF1.9210526315789487
aF4.526315789473685
aF-5.769999999999996
aF14.315789473684205
aF14.320000000000007
aF2.526315789473683
aF4.526315789473685
aF7.052631578947366
aF7.050000000000004
aF5.973684210526315
aF-2.2105263157894743
aF1.1842105263157894
aF1.4473684210526314
aF-1.8157894736842124
aa(lp43
F24.88888888888889
aF54.166666666666664
aF45.95
aF5.777777777777778
aF15.86111111111111
aF36.43
aF17.11111111111111
aF24.36111111111111
aF70.24
aF72.66666666666667
aF72.67
aF9.63888888888889
aF25.27777777777778
aF34.916666666666664
aF34.92
aF11.527777777777779
aF11.36111111111111
aF5.305555555555555
aF4.277777777777778
aF18.194444444444443
aF23.444444444444443
aF55.72222222222222
aF42.07
aF6.583333333333333
aF18.88888888888889
aF34.85
aF14.777777777777779
aF20.63888888888889
aF71.6
aF68.25
aF68.25
aF9.86111111111111
aF23.27777777777778
aF33.138888888888886
aF33.14
aF13.305555555555555
aF11.472222222222221
aF5.444444444444445
aF2.4722222222222223
aF20.72222222222222
aF1.4444444444444464
aF-1.5555555555555571
aF3.8800000000000026
aF-0.8055555555555554
aF-3.0277777777777786
aF1.5799999999999983
aF2.333333333333332
aF3.7222222222222214
aF-1.3599999999999994
aF4.416666666666671
aF4.420000000000002
aF-0.22222222222222143
aF2.0
aF1.7777777777777786
aF1.7800000000000011
aF-1.7777777777777768
aF-0.11111111111111072
aF-0.13888888888888928
aF1.8055555555555554
aF-2.5277777777777786
aF27.285714285714285
aF55.34285714285714
aF49.3
aF5.4
aF15.885714285714286
aF33.99
aF19.0
aF26.714285714285715
aF71.12
aF78.97142857142858
aF78.97
aF11.885714285714286
aF26.285714285714285
aF38.17142857142857
aF38.17
aF14.942857142857143
aF13.228571428571428
aF5.828571428571428
aF5.6
aF20.914285714285715
aF23.285714285714285
aF56.02857142857143
aF41.56
aF6.257142857142857
aF17.62857142857143
aF35.49
aF17.285714285714285
aF25.485714285714284
aF67.83
aF70.11428571428571
aF70.11
aF10.657142857142857
aF20.0
aF30.65714285714286
aF30.66
aF11.942857142857143
aF11.314285714285715
aF6.628571428571429
aF3.1714285714285713
aF21.2
aF4.0
aF-0.6857142857142904
aF7.739999999999995
aF-0.8571428571428568
aF-1.7428571428571438
aF-1.5
aF1.7142857142857153
aF1.2285714285714313
aF3.2900000000000063
aF8.857142857142861
aF8.86
aF1.2285714285714295
aF6.285714285714285
aF7.5142857142857125
aF7.510000000000002
aF3.0
aF1.9142857142857128
aF-0.8000000000000007
aF2.4285714285714284
aF-0.2857142857142847
aa(lp44
F28.176470588235293
aF59.088235294117645
aF47.69
aF5.352941176470588
aF16.235294117647058
aF32.97
aF15.176470588235293
aF23.558823529411764
aF64.42
aF76.88235294117646
aF76.88
aF12.558823529411764
aF24.735294117647058
aF37.294117647058826
aF37.29
aF17.38235294117647
aF13.205882352941176
aF8.647058823529411
aF4.676470588235294
aF18.0
aF26.11764705882353
aF59.6764705882353
aF43.77
aF5.294117647058823
aF17.205882352941178
aF30.77
aF12.970588235294118
aF20.029411764705884
aF64.76
aF70.5
aF70.5
aF12.382352941176471
aF22.676470588235293
aF35.05882352941177
aF35.06
aF13.323529411764707
aF14.411764705882353
aF7.911764705882353
aF3.9705882352941178
aF19.970588235294116
aF2.0588235294117645
aF-0.5882352941176521
aF3.9199999999999946
aF0.0588235294117645
aF-0.9705882352941195
aF2.1999999999999993
aF2.2058823529411757
aF3.5294117647058805
aF-0.3400000000000034
aF6.382352941176464
aF6.3799999999999955
aF0.1764705882352935
aF2.0588235294117645
aF2.235294117647058
aF2.229999999999997
aF4.0588235294117645
aF-1.2058823529411775
aF0.735294117647058
aF0.7058823529411766
aF-1.970588235294116
aF23.10810810810811
aF50.91891891891892
aF45.38
aF5.5675675675675675
aF15.108108108108109
aF36.85
aF14.405405405405405
aF21.405405405405407
aF67.3
aF66.1891891891892
aF66.19
aF10.567567567567568
aF24.89189189189189
aF35.45945945945946
aF35.46
aF13.08108108108108
aF10.0
aF5.216216216216216
aF4.054054054054054
aF16.054054054054053
aF19.64864864864865
aF50.67567567567568
aF38.77
aF5.486486486486487
aF17.0
aF32.27
aF10.891891891891891
aF16.45945945945946
aF66.17
aF55.67567567567568
aF55.68
aF8.675675675675675
aF20.64864864864865
aF29.324324324324323
aF29.32
aF10.08108108108108
aF11.162162162162161
aF5.162162162162162
aF3.4054054054054053
aF18.27027027027027
aF3.4594594594594597
aF0.2432432432432421
aF6.609999999999999
aF0.0810810810810807
aF-1.8918918918918912
aF4.579999999999998
aF3.513513513513514
aF4.945945945945947
aF1.1299999999999955
aF10.513513513513516
aF10.509999999999998
aF1.891891891891893
aF4.243243243243242
aF6.135135135135137
aF6.140000000000001
aF3.0
aF-1.1621621621621614
aF0.0540540540540535
aF0.6486486486486491
aF-2.2162162162162176
aa(lp45
F27.27777777777778
aF57.25
aF47.65
aF8.055555555555555
aF21.0
aF38.36
aF16.166666666666668
aF21.97222222222222
aF73.58
aF78.77777777777777
aF78.78
aF11.305555555555555
aF25.86111111111111
aF37.166666666666664
aF37.17
aF16.27777777777778
aF11.666666666666666
aF5.861111111111111
aF4.083333333333333
aF18.47222222222222
aF22.555555555555557
aF56.19444444444444
aF40.14
aF6.555555555555555
aF21.63888888888889
aF30.3
aF15.277777777777779
aF21.86111111111111
aF69.89
aF66.94444444444444
aF66.94
aF11.083333333333334
aF21.97222222222222
aF33.05555555555556
aF33.06
aF12.055555555555555
aF12.555555555555555
aF5.583333333333333
aF3.0833333333333335
aF19.38888888888889
aF4.722222222222221
aF1.0555555555555571
aF7.509999999999998
aF1.5
aF-0.6388888888888893
aF8.059999999999999
aF0.8888888888888893
aF0.11111111111111072
aF3.6899999999999977
aF11.833333333333329
aF11.840000000000003
aF0.22222222222222143
aF3.8888888888888893
aF4.111111111111107
aF4.109999999999999
aF4.222222222222223
aF-0.8888888888888893
aF0.2777777777777777
aF0.9999999999999996
aF-0.9166666666666679
aF25.054054054054053
aF55.351351351351354
aF45.26
aF5.54054054054054
aF17.054054054054053
aF32.49
aF16.56756756756757
aF23.027027027027028
aF71.95
aF72.21621621621621
aF72.22
aF13.54054054054054
aF24.945945945945947
aF38.486486486486484
aF38.49
aF12.756756756756756
aF10.486486486486486
aF5.1891891891891895
aF4.648648648648648
aF16.675675675675677
aF22.243243243243242
aF53.810810810810814
aF41.34
aF5.1891891891891895
aF15.027027027027026
aF34.53
aF12.027027027027026
aF17.054054054054053
aF70.52
aF61.7027027027027
aF61.7
aF9.486486486486486
aF20.45945945945946
aF29.945945945945947
aF29.95
aF10.162162162162161
aF10.783783783783784
aF5.243243243243243
aF3.6216216216216215
aF19.72972972972973
aF2.8108108108108105
aF1.5405405405405403
aF3.9199999999999946
aF0.35135135135135087
aF2.0270270270270263
aF-2.039999999999999
aF4.540540540540542
aF5.9729729729729755
aF1.4300000000000068
aF10.513513513513509
aF10.519999999999996
aF4.054054054054054
aF4.486486486486488
aF8.540540540540537
aF8.540000000000003
aF2.5945945945945947
aF-0.29729729729729826
aF-0.0540540540540535
aF1.0270270270270268
aF-3.0540540540540526
aa(lp46
F26.34285714285714
aF56.91428571428571
aF46.29
aF7.085714285714285
aF20.514285714285716
aF34.54
aF16.257142857142856
aF22.857142857142858
aF71.12
aF76.02857142857142
aF76.03
aF12.885714285714286
aF21.0
aF33.885714285714286
aF33.89
aF16.4
aF11.228571428571428
aF7.3428571428571425
aF2.9714285714285715
aF20.857142857142858
aF21.314285714285713
aF46.94285714285714
aF45.4
aF4.228571428571429
aF12.314285714285715
aF34.34
aF16.542857142857144
aF24.0
aF68.93
aF63.4
aF63.4
aF8.371428571428572
aF20.714285714285715
aF29.085714285714285
aF29.09
aF10.314285714285715
aF15.857142857142858
aF5.142857142857143
aF3.4857142857142858
aF20.285714285714285
aF5.0285714285714285
aF9.971428571428568
aF0.8900000000000006
aF2.8571428571428568
aF8.200000000000001
aF0.19999999999999574
aF-0.28571428571428825
aF-1.1428571428571423
aF2.1899999999999977
aF12.628571428571426
aF12.630000000000003
aF4.514285714285714
aF0.2857142857142847
aF4.800000000000001
aF4.800000000000001
aF6.085714285714284
aF-4.62857142857143
aF2.1999999999999993
aF-0.5142857142857142
aF0.571428571428573
aF29.0
aF59.351351351351354
aF48.86
aF6.1891891891891895
aF16.2972972972973
aF37.98
aF16.972972972972972
aF22.675675675675677
aF74.85
aF81.16216216216216
aF81.16
aF9.945945945945946
aF25.405405405405407
aF35.351351351351354
aF35.35
aF17.18918918918919
aF10.243243243243244
aF9.216216216216216
aF3.0
aF17.62162162162162
aF24.27027027027027
aF56.83783783783784
aF42.7
aF8.135135135135135
aF23.62162162162162
aF34.44
aF13.702702702702704
aF20.27027027027027
aF67.6
aF70.37837837837837
aF70.38
aF10.18918918918919
aF23.45945945945946
aF33.648648648648646
aF33.65
aF13.756756756756756
aF14.297297297297296
aF5.243243243243243
aF2.675675675675676
aF18.37837837837838
aF4.72972972972973
aF2.513513513513516
aF6.159999999999997
aF-1.9459459459459456
aF-7.324324324324323
aF3.539999999999999
aF3.2702702702702684
aF2.405405405405407
aF7.25
aF10.78378378378379
aF10.780000000000001
aF-0.24324324324324387
aF1.9459459459459474
aF1.7027027027027088
aF1.7000000000000028
aF3.4324324324324333
aF-4.054054054054053
aF3.972972972972973
aF0.3243243243243241
aF-0.7567567567567579
aa(lp47
F25.236842105263158
aF55.5
aF45.47
aF7.368421052631579
aF19.07894736842105
aF38.62
aF16.973684210526315
aF24.92105263157895
aF68.11
aF74.8157894736842
aF74.82
aF13.81578947368421
aF24.5
aF38.31578947368421
aF38.32
aF14.81578947368421
aF11.578947368421053
aF5.184210526315789
aF5.342105263157895
aF17.05263157894737
aF24.394736842105264
aF57.31578947368421
aF42.56
aF6.7894736842105265
aF19.236842105263158
aF35.29
aF12.236842105263158
aF18.105263157894736
aF67.59
aF67.8157894736842
aF67.82
aF11.368421052631579
aF20.210526315789473
aF31.57894736842105
aF31.58
aF14.894736842105264
aF10.368421052631579
aF5.342105263157895
aF2.8421052631578947
aF19.157894736842106
aF0.8421052631578938
aF-1.8157894736842124
aF2.9099999999999966
aF0.5789473684210522
aF-0.1578947368421062
aF3.3299999999999983
aF4.7368421052631575
aF6.815789473684212
aF0.519999999999996
aF7.0
aF7.0
aF2.447368421052632
aF4.289473684210527
aF6.736842105263161
aF6.740000000000002
aF-0.0789473684210531
aF1.2105263157894743
aF-0.1578947368421053
aF2.5
aF-2.1052631578947363
aF27.34285714285714
aF55.05714285714286
aF49.66
aF10.17142857142857
aF24.542857142857144
aF41.44
aF13.885714285714286
aF18.685714285714287
aF74.31
aF78.74285714285715
aF78.74
aF8.371428571428572
aF25.685714285714287
aF34.05714285714286
aF34.06
aF17.542857142857144
aF9.771428571428572
aF3.9714285714285715
aF1.4
aF17.65714285714286
aF24.114285714285714
aF56.65714285714286
aF42.56
aF6.685714285714286
aF19.571428571428573
aF34.16
aF12.971428571428572
aF18.685714285714287
aF69.42
aF67.88571428571429
aF67.89
aF9.914285714285715
aF21.857142857142858
aF31.771428571428572
aF31.77
aF12.228571428571428
aF9.657142857142857
aF4.828571428571428
aF2.8
aF18.485714285714284
aF3.2285714285714278
aF-1.6000000000000014
aF7.099999999999994
aF3.485714285714285
aF4.9714285714285715
aF7.280000000000001
aF0.9142857142857146
aF0.0
aF4.890000000000001
aF10.857142857142861
aF10.849999999999994
aF-1.5428571428571427
aF3.828571428571429
aF2.2857142857142847
aF2.2900000000000027
aF5.314285714285717
aF0.11428571428571566
aF-0.8571428571428568
aF-1.4
aF-0.8285714285714256
aa(lp48
F25.1
aF55.35
aF45.35
aF5.075
aF15.275
aF33.22
aF19.525
aF28.65
aF68.15
aF74.8
aF74.8
aF14.35
aF25.85
aF40.2
aF40.2
aF11.15
aF12.025
aF4.725
aF5.9
aF18.3
aF23.325
aF56.775
aF41.08
aF5.55
aF17.225
aF32.22
aF14.425
aF20.9
aF69.02
aF66.625
aF66.62
aF10.925
aF19.85
aF30.775
aF30.77
aF10.4
aF10.7
aF5.8
aF3.075
aF22.1
aF1.7750000000000021
aF-1.4249999999999972
aF4.270000000000003
aF-0.47499999999999964
aF-1.950000000000001
aF1.0
aF5.099999999999998
aF7.75
aF-0.8699999999999903
aF8.174999999999997
aF8.179999999999993
aF3.424999999999999
aF6.0
aF9.425000000000004
aF9.430000000000003
aF0.75
aF1.325000000000001
aF-1.0750000000000002
aF2.825
aF-3.8000000000000007
aF24.88888888888889
aF53.916666666666664
aF46.16
aF6.944444444444445
aF19.77777777777778
aF35.11
aF18.444444444444443
aF25.444444444444443
aF72.49
aF75.16666666666667
aF75.17
aF11.63888888888889
aF26.75
aF38.388888888888886
aF38.39
aF13.63888888888889
aF10.38888888888889
aF6.861111111111111
aF5.111111111111111
aF16.97222222222222
aF20.72222222222222
aF53.083333333333336
aF39.04
aF5.861111111111111
aF19.0
aF30.85
aF12.166666666666666
aF18.72222222222222
aF64.99
aF59.47222222222222
aF59.47
aF9.416666666666666
aF21.52777777777778
aF30.944444444444443
aF30.94
aF9.88888888888889
aF12.11111111111111
aF4.722222222222222
aF2.5833333333333335
aF20.88888888888889
aF4.166666666666668
aF0.8333333333333286
aF7.119999999999997
aF1.083333333333334
aF0.7777777777777786
aF4.259999999999998
aF6.277777777777777
aF6.722222222222221
aF7.5
aF15.69444444444445
aF15.700000000000003
aF2.222222222222223
aF5.222222222222221
aF7.444444444444443
aF7.449999999999999
aF3.75
aF-1.7222222222222214
aF2.1388888888888884
aF2.5277777777777772
aF-3.916666666666668
aa(lp49
F25.236842105263158
aF55.5
aF45.47
aF7.368421052631579
aF19.07894736842105
aF38.62
aF16.973684210526315
aF24.92105263157895
aF68.11
aF74.8157894736842
aF74.82
aF13.81578947368421
aF24.5
aF38.31578947368421
aF38.32
aF14.81578947368421
aF11.578947368421053
aF5.184210526315789
aF5.342105263157895
aF17.05263157894737
aF24.394736842105264
aF57.31578947368421
aF42.56
aF6.7894736842105265
aF19.236842105263158
aF35.29
aF12.236842105263158
aF18.105263157894736
aF67.59
aF67.8157894736842
aF67.82
aF11.368421052631579
aF20.210526315789473
aF31.57894736842105
aF31.58
aF14.894736842105264
aF10.368421052631579
aF5.342105263157895
aF2.8421052631578947
aF19.157894736842106
aF0.8421052631578938
aF-1.8157894736842124
aF2.9099999999999966
aF0.5789473684210522
aF-0.1578947368421062
aF3.3299999999999983
aF4.7368421052631575
aF6.815789473684212
aF0.519999999999996
aF7.0
aF7.0
aF2.447368421052632
aF4.289473684210527
aF6.736842105263161
aF6.740000000000002
aF-0.0789473684210531
aF1.2105263157894743
aF-0.1578947368421053
aF2.5
aF-2.1052631578947363
aF24.394736842105264
aF53.10526315789474
aF45.94
aF7.815789473684211
aF20.789473684210527
aF37.59
aF16.894736842105264
aF22.657894736842106
aF74.56
aF73.5
aF73.5
aF8.868421052631579
aF24.44736842105263
aF33.31578947368421
aF33.32
aF12.31578947368421
aF8.078947368421053
aF4.815789473684211
aF3.3421052631578947
aF15.105263157894736
aF24.07894736842105
aF56.18421052631579
aF42.86
aF4.842105263157895
aF14.210526315789474
aF34.07
aF11.0
aF15.236842105263158
aF72.19
aF64.0
aF64.0
aF9.210526315789474
aF22.68421052631579
aF31.894736842105264
aF31.89
aF9.578947368421053
aF9.736842105263158
aF4.2368421052631575
aF2.763157894736842
aF20.07894736842105
aF0.3157894736842124
aF-3.0789473684210478
aF3.0799999999999983
aF2.973684210526316
aF6.578947368421053
aF3.520000000000003
aF5.894736842105264
aF7.421052631578949
aF2.3700000000000045
aF9.5
aF9.5
aF-0.3421052631578956
aF1.763157894736839
aF1.4210526315789487
aF1.4299999999999997
aF2.7368421052631575
aF-1.6578947368421044
aF0.5789473684210531
aF0.5789473684210527
aF-4.973684210526315
aa(lp50
F29.0
aF59.351351351351354
aF48.86
aF6.1891891891891895
aF16.2972972972973
aF37.98
aF16.972972972972972
aF22.675675675675677
aF74.85
aF81.16216216216216
aF81.16
aF9.945945945945946
aF25.405405405405407
aF35.351351351351354
aF35.35
aF17.18918918918919
aF10.243243243243244
aF9.216216216216216
aF3.0
aF17.62162162162162
aF24.27027027027027
aF56.83783783783784
aF42.7
aF8.135135135135135
aF23.62162162162162
aF34.44
aF13.702702702702704
aF20.27027027027027
aF67.6
aF70.37837837837837
aF70.38
aF10.18918918918919
aF23.45945945945946
aF33.648648648648646
aF33.65
aF13.756756756756756
aF14.297297297297296
aF5.243243243243243
aF2.675675675675676
aF18.37837837837838
aF4.72972972972973
aF2.513513513513516
aF6.159999999999997
aF-1.9459459459459456
aF-7.324324324324323
aF3.539999999999999
aF3.2702702702702684
aF2.405405405405407
aF7.25
aF10.78378378378379
aF10.780000000000001
aF-0.24324324324324387
aF1.9459459459459474
aF1.7027027027027088
aF1.7000000000000028
aF3.4324324324324333
aF-4.054054054054053
aF3.972972972972973
aF0.3243243243243241
aF-0.7567567567567579
aF24.23076923076923
aF52.717948717948715
aF45.96
aF6.538461538461538
aF18.23076923076923
aF35.86
aF14.923076923076923
aF22.333333333333332
aF66.82
aF69.92307692307692
aF69.92
aF11.538461538461538
aF23.974358974358974
aF35.51282051282051
aF35.51
aF13.051282051282051
aF11.051282051282051
aF7.0256410256410255
aF3.0256410256410255
aF15.666666666666666
aF20.666666666666668
aF51.38461538461539
aF40.22
aF5.3076923076923075
aF16.102564102564102
aF32.96
aF11.128205128205128
aF16.05128205128205
aF69.33
aF57.76923076923077
aF57.77
aF9.487179487179487
aF21.05128205128205
aF30.53846153846154
aF30.54
aF9.897435897435898
aF13.487179487179487
aF5.615384615384615
aF3.076923076923077
aF18.94871794871795
aF3.564102564102562
aF1.3333333333333286
aF5.740000000000002
aF1.2307692307692308
aF2.1282051282051277
aF2.8999999999999986
aF3.7948717948717956
aF6.282051282051281
aF-2.510000000000005
aF12.153846153846153
aF12.149999999999999
aF2.051282051282051
aF2.9230769230769234
aF4.974358974358971
aF4.969999999999999
aF3.1538461538461533
aF-2.435897435897436
aF1.4102564102564106
aF-0.051282051282051544
aF-3.282051282051283
aa(lp51
F25.27027027027027
aF54.54054054054054
aF46.33
aF6.5675675675675675
aF17.405405405405407
aF37.73
aF15.08108108108108
aF22.135135135135137
aF68.13
aF72.1891891891892
aF72.19
aF11.18918918918919
aF23.64864864864865
aF34.83783783783784
aF34.84
aF13.108108108108109
aF11.945945945945946
aF6.0
aF2.5945945945945947
aF19.89189189189189
aF22.783783783783782
aF52.32432432432432
aF43.54
aF5.486486486486487
aF16.54054054054054
aF33.17
aF15.91891891891892
aF22.486486486486488
aF70.79
aF66.97297297297297
aF66.97
aF9.54054054054054
aF21.756756756756758
aF31.2972972972973
aF31.3
aF11.64864864864865
aF12.405405405405405
aF4.945945945945946
aF4.486486486486487
aF19.027027027027028
aF2.4864864864864877
aF2.2162162162162176
aF2.789999999999999
aF1.0810810810810807
aF0.8648648648648667
aF4.559999999999995
aF-0.8378378378378386
aF-0.35135135135135087
aF-2.660000000000011
aF5.216216216216225
aF5.219999999999999
aF1.6486486486486491
aF1.8918918918918912
aF3.5405405405405403
aF3.5400000000000027
aF1.4594594594594597
aF-0.45945945945945965
aF1.0540540540540544
aF-1.891891891891892
aF0.8648648648648631
aF24.88888888888889
aF54.166666666666664
aF45.95
aF5.777777777777778
aF15.86111111111111
aF36.43
aF17.11111111111111
aF24.36111111111111
aF70.24
aF72.66666666666667
aF72.67
aF9.63888888888889
aF25.27777777777778
aF34.916666666666664
aF34.92
aF11.527777777777779
aF11.36111111111111
aF5.305555555555555
aF4.277777777777778
aF18.194444444444443
aF23.444444444444443
aF55.72222222222222
aF42.07
aF6.583333333333333
aF18.88888888888889
aF34.85
aF14.777777777777779
aF20.63888888888889
aF71.6
aF68.25
aF68.25
aF9.86111111111111
aF23.27777777777778
aF33.138888888888886
aF33.14
aF13.305555555555555
aF11.472222222222221
aF5.444444444444445
aF2.4722222222222223
aF20.72222222222222
aF1.4444444444444464
aF-1.5555555555555571
aF3.8800000000000026
aF-0.8055555555555554
aF-3.0277777777777786
aF1.5799999999999983
aF2.333333333333332
aF3.7222222222222214
aF-1.3599999999999994
aF4.416666666666671
aF4.420000000000002
aF-0.22222222222222143
aF2.0
aF1.7777777777777786
aF1.7800000000000011
aF-1.7777777777777768
aF-0.11111111111111072
aF-0.13888888888888928
aF1.8055555555555554
aF-2.5277777777777786
aa(lp52
F24.25
aF55.80555555555556
aF43.45
aF5.166666666666667
aF14.416666666666666
aF35.84
aF16.61111111111111
aF25.055555555555557
aF66.3
aF70.27777777777777
aF70.28
aF13.055555555555555
aF24.833333333333332
aF37.888888888888886
aF37.89
aF9.88888888888889
aF9.86111111111111
aF7.611111111111111
aF5.083333333333333
aF16.666666666666668
aF20.38888888888889
aF52.888888888888886
aF38.55
aF4.833333333333333
aF16.77777777777778
aF28.81
aF11.38888888888889
aF16.86111111111111
aF67.55
aF57.0
aF57.0
aF10.277777777777779
aF22.5
aF32.77777777777778
aF32.78
aF9.916666666666666
aF13.61111111111111
aF4.277777777777778
aF4.194444444444445
aF19.583333333333332
aF3.8611111111111107
aF2.9166666666666714
aF4.900000000000006
aF0.3333333333333339
aF-2.3611111111111125
aF7.030000000000005
aF5.222222222222221
aF8.194444444444446
aF-1.25
aF13.277777777777771
aF13.280000000000001
aF2.777777777777777
aF2.333333333333332
aF5.111111111111107
aF5.109999999999999
aF-0.02777777777777679
aF-3.75
aF3.333333333333333
aF0.8888888888888884
aF-2.9166666666666643
aF26.210526315789473
aF55.86842105263158
aF46.91
aF5.368421052631579
aF14.763157894736842
aF36.36
aF15.078947368421053
aF22.894736842105264
aF65.86
aF72.86842105263158
aF72.87
aF12.236842105263158
aF25.894736842105264
aF38.13157894736842
aF38.13
aF15.105263157894736
aF10.18421052631579
aF5.868421052631579
aF4.552631578947368
aF16.57894736842105
aF20.42105263157895
aF53.71052631578947
aF38.02
aF4.552631578947368
aF14.236842105263158
aF31.98
aF13.157894736842104
aF18.36842105263158
aF71.63
aF58.55263157894737
aF58.55
aF9.710526315789474
aF21.36842105263158
aF31.07894736842105
aF31.08
aF9.131578947368421
aF12.394736842105264
aF4.684210526315789
aF3.1052631578947367
aF18.394736842105264
aF5.789473684210524
aF2.1578947368421098
aF8.889999999999993
aF0.8157894736842106
aF0.526315789473685
aF4.379999999999999
aF1.9210526315789487
aF4.526315789473685
aF-5.769999999999996
aF14.315789473684205
aF14.320000000000007
aF2.526315789473683
aF4.526315789473685
aF7.052631578947366
aF7.050000000000004
aF5.973684210526315
aF-2.2105263157894743
aF1.1842105263157894
aF1.4473684210526314
aF-1.8157894736842124
aa(lp53
F24.275
aF54.05
aF44.91
aF7.175
aF18.525
aF38.73
aF16.1
aF20.725
aF77.68
aF71.825
aF71.83
aF9.675
aF25.225
aF34.9
aF34.9
aF12.2
aF11.425
aF7.025
aF5.75
aF17.975
aF21.95
aF56.025
aF39.18
aF6.025
aF18.275
aF32.97
aF13.3
aF20.025
aF66.42
aF63.225
aF63.23
aF12.3
aF22.15
aF34.45
aF34.45
aF11.35
aF12.95
aF5.7
aF3.175
aF18.275
aF2.3249999999999993
aF-1.9750000000000014
aF5.729999999999997
aF1.1499999999999995
aF0.25
aF5.759999999999998
aF2.8000000000000007
aF0.7000000000000028
aF11.260000000000005
aF8.600000000000001
aF8.600000000000001
aF-2.625
aF3.075000000000003
aF0.44999999999999574
aF0.44999999999999574
aF0.8499999999999996
aF-1.5249999999999986
aF1.3250000000000002
aF2.575
aF-0.29999999999999716
aF29.5
aF62.19444444444444
aF47.43
aF8.36111111111111
aF23.333333333333332
aF35.83
aF15.666666666666666
aF22.61111111111111
aF69.29
aF83.02777777777777
aF83.03
aF10.416666666666666
aF28.11111111111111
aF38.52777777777778
aF38.53
aF18.416666666666668
aF10.555555555555555
aF5.944444444444445
aF2.9444444444444446
aF17.305555555555557
aF26.5
aF63.111111111111114
aF41.99
aF7.194444444444445
aF21.11111111111111
aF34.08
aF14.194444444444445
aF19.38888888888889
aF73.21
aF74.38888888888889
aF74.39
aF11.194444444444445
aF25.72222222222222
aF36.916666666666664
aF36.92
aF13.222222222222221
aF11.61111111111111
aF5.472222222222222
aF3.4444444444444446
aF19.38888888888889
aF3.0
aF-0.9166666666666714
aF5.439999999999998
aF1.166666666666666
aF2.2222222222222214
aF1.75
aF1.4722222222222214
aF3.2222222222222214
aF-3.9199999999999875
aF8.638888888888886
aF8.64
aF-0.7777777777777786
aF2.3888888888888893
aF1.6111111111111143
aF1.6099999999999994
aF5.194444444444446
aF-1.0555555555555554
aF0.4722222222222223
aF-0.5
aF-2.083333333333332
aa(lp54
F26.94736842105263
aF56.81578947368421
aF47.43
aF8.078947368421053
aF20.605263157894736
aF39.21
aF13.552631578947368
aF19.157894736842106
aF70.74
aF75.52631578947368
aF75.53
aF10.763157894736842
aF26.07894736842105
aF36.8421052631579
aF36.84
aF16.763157894736842
aF11.578947368421053
aF6.815789473684211
aF4.578947368421052
aF18.973684210526315
aF21.5
aF54.1578947368421
aF39.7
aF6.631578947368421
aF20.0
aF33.16
aF15.921052631578947
aF21.81578947368421
aF72.98
aF65.55263157894737
aF65.55
aF9.868421052631579
aF21.92105263157895
aF31.789473684210527
aF31.79
aF10.657894736842104
aF11.81578947368421
aF5.631578947368421
aF2.8947368421052633
aF17.605263157894736
aF5.44736842105263
aF2.6578947368421098
aF7.729999999999997
aF1.4473684210526319
aF0.6052631578947363
aF6.050000000000004
aF-2.3684210526315788
aF-2.6578947368421026
aF-2.240000000000009
aF9.973684210526315
aF9.980000000000004
aF0.8947368421052637
aF4.157894736842103
aF5.05263157894737
aF5.050000000000004
aF6.105263157894738
aF-0.23684210526315752
aF1.1842105263157894
aF1.684210526315789
aF1.3684210526315788
aF23.10810810810811
aF50.91891891891892
aF45.38
aF5.5675675675675675
aF15.108108108108109
aF36.85
aF14.405405405405405
aF21.405405405405407
aF67.3
aF66.1891891891892
aF66.19
aF10.567567567567568
aF24.89189189189189
aF35.45945945945946
aF35.46
aF13.08108108108108
aF10.0
aF5.216216216216216
aF4.054054054054054
aF16.054054054054053
aF19.64864864864865
aF50.67567567567568
aF38.77
aF5.486486486486487
aF17.0
aF32.27
aF10.891891891891891
aF16.45945945945946
aF66.17
aF55.67567567567568
aF55.68
aF8.675675675675675
aF20.64864864864865
aF29.324324324324323
aF29.32
aF10.08108108108108
aF11.162162162162161
aF5.162162162162162
aF3.4054054054054053
aF18.27027027027027
aF3.4594594594594597
aF0.2432432432432421
aF6.609999999999999
aF0.0810810810810807
aF-1.8918918918918912
aF4.579999999999998
aF3.513513513513514
aF4.945945945945947
aF1.1299999999999955
aF10.513513513513516
aF10.509999999999998
aF1.891891891891893
aF4.243243243243242
aF6.135135135135137
aF6.140000000000001
aF3.0
aF-1.1621621621621614
aF0.0540540540540535
aF0.6486486486486491
aF-2.2162162162162176
aa(lp55
F25.1
aF55.35
aF45.35
aF5.075
aF15.275
aF33.22
aF19.525
aF28.65
aF68.15
aF74.8
aF74.8
aF14.35
aF25.85
aF40.2
aF40.2
aF11.15
aF12.025
aF4.725
aF5.9
aF18.3
aF23.325
aF56.775
aF41.08
aF5.55
aF17.225
aF32.22
aF14.425
aF20.9
aF69.02
aF66.625
aF66.62
aF10.925
aF19.85
aF30.775
aF30.77
aF10.4
aF10.7
aF5.8
aF3.075
aF22.1
aF1.7750000000000021
aF-1.4249999999999972
aF4.270000000000003
aF-0.47499999999999964
aF-1.950000000000001
aF1.0
aF5.099999999999998
aF7.75
aF-0.8699999999999903
aF8.174999999999997
aF8.179999999999993
aF3.424999999999999
aF6.0
aF9.425000000000004
aF9.430000000000003
aF0.75
aF1.325000000000001
aF-1.0750000000000002
aF2.825
aF-3.8000000000000007
aF28.405405405405407
aF60.32432432432432
aF47.09
aF7.783783783783784
aF21.16216216216216
aF36.78
aF16.43243243243243
aF24.864864864864863
aF66.09
aF81.02702702702703
aF81.03
aF13.594594594594595
aF24.135135135135137
aF37.729729729729726
aF37.73
aF15.35135135135135
aF10.567567567567568
aF10.0
aF4.675675675675675
aF19.54054054054054
aF21.243243243243242
aF53.5945945945946
aF39.64
aF4.594594594594595
aF16.054054054054053
aF28.62
aF14.0
aF20.56756756756757
aF68.07
aF61.13513513513514
aF61.14
aF11.72972972972973
aF23.0
aF34.729729729729726
aF34.73
aF10.45945945945946
aF17.243243243243242
aF4.5675675675675675
aF2.7837837837837838
aF20.405405405405407
aF7.162162162162165
aF6.729729729729726
aF7.450000000000003
aF3.1891891891891895
aF5.108108108108109
aF8.16
aF2.4324324324324316
aF4.297297297297295
aF-1.9799999999999898
aF19.891891891891895
aF19.89
aF1.864864864864865
aF1.1351351351351369
aF3.0
aF3.0
aF4.891891891891891
aF-6.675675675675674
aF5.4324324324324325
aF1.8918918918918917
aF-0.8648648648648667
aa(lp56
F25.054054054054053
aF55.351351351351354
aF45.26
aF5.54054054054054
aF17.054054054054053
aF32.49
aF16.56756756756757
aF23.027027027027028
aF71.95
aF72.21621621621621
aF72.22
aF13.54054054054054
aF24.945945945945947
aF38.486486486486484
aF38.49
aF12.756756756756756
aF10.486486486486486
aF5.1891891891891895
aF4.648648648648648
aF16.675675675675677
aF22.243243243243242
aF53.810810810810814
aF41.34
aF5.1891891891891895
aF15.027027027027026
aF34.53
aF12.027027027027026
aF17.054054054054053
aF70.52
aF61.7027027027027
aF61.7
aF9.486486486486486
aF20.45945945945946
aF29.945945945945947
aF29.95
aF10.162162162162161
aF10.783783783783784
aF5.243243243243243
aF3.6216216216216215
aF19.72972972972973
aF2.8108108108108105
aF1.5405405405405403
aF3.9199999999999946
aF0.35135135135135087
aF2.0270270270270263
aF-2.039999999999999
aF4.540540540540542
aF5.9729729729729755
aF1.4300000000000068
aF10.513513513513509
aF10.519999999999996
aF4.054054054054054
aF4.486486486486488
aF8.540540540540537
aF8.540000000000003
aF2.5945945945945947
aF-0.29729729729729826
aF-0.0540540540540535
aF1.0270270270270268
aF-3.0540540540540526
aF25.54054054054054
aF53.567567567567565
aF47.68
aF8.621621621621621
aF21.45945945945946
aF40.18
aF14.243243243243244
aF18.675675675675677
aF76.27
aF73.94594594594595
aF73.95
aF8.891891891891891
aF22.45945945945946
aF31.35135135135135
aF31.35
aF14.18918918918919
aF9.324324324324325
aF5.162162162162162
aF2.3783783783783785
aF14.243243243243244
aF24.45945945945946
aF55.0
aF44.47
aF5.4324324324324325
aF17.08108108108108
aF31.8
aF10.72972972972973
aF14.675675675675675
aF73.11
aF65.08108108108108
aF65.08
aF9.837837837837839
aF21.35135135135135
aF31.18918918918919
aF31.19
aF11.81081081081081
aF10.756756756756756
aF4.891891891891892
aF2.7027027027027026
aF16.91891891891892
aF1.0810810810810807
aF-1.4324324324324351
aF3.210000000000001
aF3.1891891891891886
aF4.378378378378379
aF8.379999999999999
aF3.513513513513514
aF4.000000000000002
aF3.1599999999999966
aF8.86486486486487
aF8.870000000000005
aF-0.9459459459459474
aF1.1081081081081088
aF0.1621621621621614
aF0.16000000000000014
aF2.378378378378379
aF-1.4324324324324316
aF0.2702702702702702
aF-0.3243243243243241
aF-2.6756756756756754
aa(lp57
F24.394736842105264
aF53.10526315789474
aF45.94
aF7.815789473684211
aF20.789473684210527
aF37.59
aF16.894736842105264
aF22.657894736842106
aF74.56
aF73.5
aF73.5
aF8.868421052631579
aF24.44736842105263
aF33.31578947368421
aF33.32
aF12.31578947368421
aF8.078947368421053
aF4.815789473684211
aF3.3421052631578947
aF15.105263157894736
aF24.07894736842105
aF56.18421052631579
aF42.86
aF4.842105263157895
aF14.210526315789474
aF34.07
aF11.0
aF15.236842105263158
aF72.19
aF64.0
aF64.0
aF9.210526315789474
aF22.68421052631579
aF31.894736842105264
aF31.89
aF9.578947368421053
aF9.736842105263158
aF4.2368421052631575
aF2.763157894736842
aF20.07894736842105
aF0.3157894736842124
aF-3.0789473684210478
aF3.0799999999999983
aF2.973684210526316
aF6.578947368421053
aF3.520000000000003
aF5.894736842105264
aF7.421052631578949
aF2.3700000000000045
aF9.5
aF9.5
aF-0.3421052631578956
aF1.763157894736839
aF1.4210526315789487
aF1.4299999999999997
aF2.7368421052631575
aF-1.6578947368421044
aF0.5789473684210531
aF0.5789473684210527
aF-4.973684210526315
aF26.210526315789473
aF55.86842105263158
aF46.91
aF5.368421052631579
aF14.763157894736842
aF36.36
aF15.078947368421053
aF22.894736842105264
aF65.86
aF72.86842105263158
aF72.87
aF12.236842105263158
aF25.894736842105264
aF38.13157894736842
aF38.13
aF15.105263157894736
aF10.18421052631579
aF5.868421052631579
aF4.552631578947368
aF16.57894736842105
aF20.42105263157895
aF53.71052631578947
aF38.02
aF4.552631578947368
aF14.236842105263158
aF31.98
aF13.157894736842104
aF18.36842105263158
aF71.63
aF58.55263157894737
aF58.55
aF9.710526315789474
aF21.36842105263158
aF31.07894736842105
aF31.08
aF9.131578947368421
aF12.394736842105264
aF4.684210526315789
aF3.1052631578947367
aF18.394736842105264
aF5.789473684210524
aF2.1578947368421098
aF8.889999999999993
aF0.8157894736842106
aF0.526315789473685
aF4.379999999999999
aF1.9210526315789487
aF4.526315789473685
aF-5.769999999999996
aF14.315789473684205
aF14.320000000000007
aF2.526315789473683
aF4.526315789473685
aF7.052631578947366
aF7.050000000000004
aF5.973684210526315
aF-2.2105263157894743
aF1.1842105263157894
aF1.4473684210526314
aF-1.8157894736842124
aa(lp58
F25.27027027027027
aF54.54054054054054
aF46.33
aF6.5675675675675675
aF17.405405405405407
aF37.73
aF15.08108108108108
aF22.135135135135137
aF68.13
aF72.1891891891892
aF72.19
aF11.18918918918919
aF23.64864864864865
aF34.83783783783784
aF34.84
aF13.108108108108109
aF11.945945945945946
aF6.0
aF2.5945945945945947
aF19.89189189189189
aF22.783783783783782
aF52.32432432432432
aF43.54
aF5.486486486486487
aF16.54054054054054
aF33.17
aF15.91891891891892
aF22.486486486486488
aF70.79
aF66.97297297297297
aF66.97
aF9.54054054054054
aF21.756756756756758
aF31.2972972972973
aF31.3
aF11.64864864864865
aF12.405405405405405
aF4.945945945945946
aF4.486486486486487
aF19.027027027027028
aF2.4864864864864877
aF2.2162162162162176
aF2.789999999999999
aF1.0810810810810807
aF0.8648648648648667
aF4.559999999999995
aF-0.8378378378378386
aF-0.35135135135135087
aF-2.660000000000011
aF5.216216216216225
aF5.219999999999999
aF1.6486486486486491
aF1.8918918918918912
aF3.5405405405405403
aF3.5400000000000027
aF1.4594594594594597
aF-0.45945945945945965
aF1.0540540540540544
aF-1.891891891891892
aF0.8648648648648631
aF24.23076923076923
aF52.717948717948715
aF45.96
aF6.538461538461538
aF18.23076923076923
aF35.86
aF14.923076923076923
aF22.333333333333332
aF66.82
aF69.92307692307692
aF69.92
aF11.538461538461538
aF23.974358974358974
aF35.51282051282051
aF35.51
aF13.051282051282051
aF11.051282051282051
aF7.0256410256410255
aF3.0256410256410255
aF15.666666666666666
aF20.666666666666668
aF51.38461538461539
aF40.22
aF5.3076923076923075
aF16.102564102564102
aF32.96
aF11.128205128205128
aF16.05128205128205
aF69.33
aF57.76923076923077
aF57.77
aF9.487179487179487
aF21.05128205128205
aF30.53846153846154
aF30.54
aF9.897435897435898
aF13.487179487179487
aF5.615384615384615
aF3.076923076923077
aF18.94871794871795
aF3.564102564102562
aF1.3333333333333286
aF5.740000000000002
aF1.2307692307692308
aF2.1282051282051277
aF2.8999999999999986
aF3.7948717948717956
aF6.282051282051281
aF-2.510000000000005
aF12.153846153846153
aF12.149999999999999
aF2.051282051282051
aF2.9230769230769234
aF4.974358974358971
aF4.969999999999999
aF3.1538461538461533
aF-2.435897435897436
aF1.4102564102564106
aF-0.051282051282051544
aF-3.282051282051283
aa(lp59
F25.1
aF55.35
aF45.35
aF5.075
aF15.275
aF33.22
aF19.525
aF28.65
aF68.15
aF74.8
aF74.8
aF14.35
aF25.85
aF40.2
aF40.2
aF11.15
aF12.025
aF4.725
aF5.9
aF18.3
aF23.325
aF56.775
aF41.08
aF5.55
aF17.225
aF32.22
aF14.425
aF20.9
aF69.02
aF66.625
aF66.62
aF10.925
aF19.85
aF30.775
aF30.77
aF10.4
aF10.7
aF5.8
aF3.075
aF22.1
aF1.7750000000000021
aF-1.4249999999999972
aF4.270000000000003
aF-0.47499999999999964
aF-1.950000000000001
aF1.0
aF5.099999999999998
aF7.75
aF-0.8699999999999903
aF8.174999999999997
aF8.179999999999993
aF3.424999999999999
aF6.0
aF9.425000000000004
aF9.430000000000003
aF0.75
aF1.325000000000001
aF-1.0750000000000002
aF2.825
aF-3.8000000000000007
aF25.54054054054054
aF53.567567567567565
aF47.68
aF8.621621621621621
aF21.45945945945946
aF40.18
aF14.243243243243244
aF18.675675675675677
aF76.27
aF73.94594594594595
aF73.95
aF8.891891891891891
aF22.45945945945946
aF31.35135135135135
aF31.35
aF14.18918918918919
aF9.324324324324325
aF5.162162162162162
aF2.3783783783783785
aF14.243243243243244
aF24.45945945945946
aF55.0
aF44.47
aF5.4324324324324325
aF17.08108108108108
aF31.8
aF10.72972972972973
aF14.675675675675675
aF73.11
aF65.08108108108108
aF65.08
aF9.837837837837839
aF21.35135135135135
aF31.18918918918919
aF31.19
aF11.81081081081081
aF10.756756756756756
aF4.891891891891892
aF2.7027027027027026
aF16.91891891891892
aF1.0810810810810807
aF-1.4324324324324351
aF3.210000000000001
aF3.1891891891891886
aF4.378378378378379
aF8.379999999999999
aF3.513513513513514
aF4.000000000000002
aF3.1599999999999966
aF8.86486486486487
aF8.870000000000005
aF-0.9459459459459474
aF1.1081081081081088
aF0.1621621621621614
aF0.16000000000000014
aF2.378378378378379
aF-1.4324324324324316
aF0.2702702702702702
aF-0.3243243243243241
aF-2.6756756756756754
aa(lp60
F24.275
aF54.05
aF44.91
aF7.175
aF18.525
aF38.73
aF16.1
aF20.725
aF77.68
aF71.825
aF71.83
aF9.675
aF25.225
aF34.9
aF34.9
aF12.2
aF11.425
aF7.025
aF5.75
aF17.975
aF21.95
aF56.025
aF39.18
aF6.025
aF18.275
aF32.97
aF13.3
aF20.025
aF66.42
aF63.225
aF63.23
aF12.3
aF22.15
aF34.45
aF34.45
aF11.35
aF12.95
aF5.7
aF3.175
aF18.275
aF2.3249999999999993
aF-1.9750000000000014
aF5.729999999999997
aF1.1499999999999995
aF0.25
aF5.759999999999998
aF2.8000000000000007
aF0.7000000000000028
aF11.260000000000005
aF8.600000000000001
aF8.600000000000001
aF-2.625
aF3.075000000000003
aF0.44999999999999574
aF0.44999999999999574
aF0.8499999999999996
aF-1.5249999999999986
aF1.3250000000000002
aF2.575
aF-0.29999999999999716
aF26.94736842105263
aF56.81578947368421
aF47.43
aF8.078947368421053
aF20.605263157894736
aF39.21
aF13.552631578947368
aF19.157894736842106
aF70.74
aF75.52631578947368
aF75.53
aF10.763157894736842
aF26.07894736842105
aF36.8421052631579
aF36.84
aF16.763157894736842
aF11.578947368421053
aF6.815789473684211
aF4.578947368421052
aF18.973684210526315
aF21.5
aF54.1578947368421
aF39.7
aF6.631578947368421
aF20.0
aF33.16
aF15.921052631578947
aF21.81578947368421
aF72.98
aF65.55263157894737
aF65.55
aF9.868421052631579
aF21.92105263157895
aF31.789473684210527
aF31.79
aF10.657894736842104
aF11.81578947368421
aF5.631578947368421
aF2.8947368421052633
aF17.605263157894736
aF5.44736842105263
aF2.6578947368421098
aF7.729999999999997
aF1.4473684210526319
aF0.6052631578947363
aF6.050000000000004
aF-2.3684210526315788
aF-2.6578947368421026
aF-2.240000000000009
aF9.973684210526315
aF9.980000000000004
aF0.8947368421052637
aF4.157894736842103
aF5.05263157894737
aF5.050000000000004
aF6.105263157894738
aF-0.23684210526315752
aF1.1842105263157894
aF1.684210526315789
aF1.3684210526315788
aa(lp61
F24.275
aF54.05
aF44.91
aF7.175
aF18.525
aF38.73
aF16.1
aF20.725
aF77.68
aF71.825
aF71.83
aF9.675
aF25.225
aF34.9
aF34.9
aF12.2
aF11.425
aF7.025
aF5.75
aF17.975
aF21.95
aF56.025
aF39.18
aF6.025
aF18.275
aF32.97
aF13.3
aF20.025
aF66.42
aF63.225
aF63.23
aF12.3
aF22.15
aF34.45
aF34.45
aF11.35
aF12.95
aF5.7
aF3.175
aF18.275
aF2.3249999999999993
aF-1.9750000000000014
aF5.729999999999997
aF1.1499999999999995
aF0.25
aF5.759999999999998
aF2.8000000000000007
aF0.7000000000000028
aF11.260000000000005
aF8.600000000000001
aF8.600000000000001
aF-2.625
aF3.075000000000003
aF0.44999999999999574
aF0.44999999999999574
aF0.8499999999999996
aF-1.5249999999999986
aF1.3250000000000002
aF2.575
aF-0.29999999999999716
aF24.23076923076923
aF52.717948717948715
aF45.96
aF6.538461538461538
aF18.23076923076923
aF35.86
aF14.923076923076923
aF22.333333333333332
aF66.82
aF69.92307692307692
aF69.92
aF11.538461538461538
aF23.974358974358974
aF35.51282051282051
aF35.51
aF13.051282051282051
aF11.051282051282051
aF7.0256410256410255
aF3.0256410256410255
aF15.666666666666666
aF20.666666666666668
aF51.38461538461539
aF40.22
aF5.3076923076923075
aF16.102564102564102
aF32.96
aF11.128205128205128
aF16.05128205128205
aF69.33
aF57.76923076923077
aF57.77
aF9.487179487179487
aF21.05128205128205
aF30.53846153846154
aF30.54
aF9.897435897435898
aF13.487179487179487
aF5.615384615384615
aF3.076923076923077
aF18.94871794871795
aF3.564102564102562
aF1.3333333333333286
aF5.740000000000002
aF1.2307692307692308
aF2.1282051282051277
aF2.8999999999999986
aF3.7948717948717956
aF6.282051282051281
aF-2.510000000000005
aF12.153846153846153
aF12.149999999999999
aF2.051282051282051
aF2.9230769230769234
aF4.974358974358971
aF4.969999999999999
aF3.1538461538461533
aF-2.435897435897436
aF1.4102564102564106
aF-0.051282051282051544
aF-3.282051282051283
aa(lp62
F25.1
aF55.35
aF45.35
aF5.075
aF15.275
aF33.22
aF19.525
aF28.65
aF68.15
aF74.8
aF74.8
aF14.35
aF25.85
aF40.2
aF40.2
aF11.15
aF12.025
aF4.725
aF5.9
aF18.3
aF23.325
aF56.775
aF41.08
aF5.55
aF17.225
aF32.22
aF14.425
aF20.9
aF69.02
aF66.625
aF66.62
aF10.925
aF19.85
aF30.775
aF30.77
aF10.4
aF10.7
aF5.8
aF3.075
aF22.1
aF1.7750000000000021
aF-1.4249999999999972
aF4.270000000000003
aF-0.47499999999999964
aF-1.950000000000001
aF1.0
aF5.099999999999998
aF7.75
aF-0.8699999999999903
aF8.174999999999997
aF8.179999999999993
aF3.424999999999999
aF6.0
aF9.425000000000004
aF9.430000000000003
aF0.75
aF1.325000000000001
aF-1.0750000000000002
aF2.825
aF-3.8000000000000007
aF24.394736842105264
aF53.10526315789474
aF45.94
aF7.815789473684211
aF20.789473684210527
aF37.59
aF16.894736842105264
aF22.657894736842106
aF74.56
aF73.5
aF73.5
aF8.868421052631579
aF24.44736842105263
aF33.31578947368421
aF33.32
aF12.31578947368421
aF8.078947368421053
aF4.815789473684211
aF3.3421052631578947
aF15.105263157894736
aF24.07894736842105
aF56.18421052631579
aF42.86
aF4.842105263157895
aF14.210526315789474
aF34.07
aF11.0
aF15.236842105263158
aF72.19
aF64.0
aF64.0
aF9.210526315789474
aF22.68421052631579
aF31.894736842105264
aF31.89
aF9.578947368421053
aF9.736842105263158
aF4.2368421052631575
aF2.763157894736842
aF20.07894736842105
aF0.3157894736842124
aF-3.0789473684210478
aF3.0799999999999983
aF2.973684210526316
aF6.578947368421053
aF3.520000000000003
aF5.894736842105264
aF7.421052631578949
aF2.3700000000000045
aF9.5
aF9.5
aF-0.3421052631578956
aF1.763157894736839
aF1.4210526315789487
aF1.4299999999999997
aF2.7368421052631575
aF-1.6578947368421044
aF0.5789473684210531
aF0.5789473684210527
aF-4.973684210526315
aa(lp63
F25.1
aF55.35
aF45.35
aF5.075
aF15.275
aF33.22
aF19.525
aF28.65
aF68.15
aF74.8
aF74.8
aF14.35
aF25.85
aF40.2
aF40.2
aF11.15
aF12.025
aF4.725
aF5.9
aF18.3
aF23.325
aF56.775
aF41.08
aF5.55
aF17.225
aF32.22
aF14.425
aF20.9
aF69.02
aF66.625
aF66.62
aF10.925
aF19.85
aF30.775
aF30.77
aF10.4
aF10.7
aF5.8
aF3.075
aF22.1
aF1.7750000000000021
aF-1.4249999999999972
aF4.270000000000003
aF-0.47499999999999964
aF-1.950000000000001
aF1.0
aF5.099999999999998
aF7.75
aF-0.8699999999999903
aF8.174999999999997
aF8.179999999999993
aF3.424999999999999
aF6.0
aF9.425000000000004
aF9.430000000000003
aF0.75
aF1.325000000000001
aF-1.0750000000000002
aF2.825
aF-3.8000000000000007
aF24.275
aF54.05
aF44.91
aF7.175
aF18.525
aF38.73
aF16.1
aF20.725
aF77.68
aF71.825
aF71.83
aF9.675
aF25.225
aF34.9
aF34.9
aF12.2
aF11.425
aF7.025
aF5.75
aF17.975
aF21.95
aF56.025
aF39.18
aF6.025
aF18.275
aF32.97
aF13.3
aF20.025
aF66.42
aF63.225
aF63.23
aF12.3
aF22.15
aF34.45
aF34.45
aF11.35
aF12.95
aF5.7
aF3.175
aF18.275
aF2.3249999999999993
aF-1.9750000000000014
aF5.729999999999997
aF1.1499999999999995
aF0.25
aF5.759999999999998
aF2.8000000000000007
aF0.7000000000000028
aF11.260000000000005
aF8.600000000000001
aF8.600000000000001
aF-2.625
aF3.075000000000003
aF0.44999999999999574
aF0.44999999999999574
aF0.8499999999999996
aF-1.5249999999999986
aF1.3250000000000002
aF2.575
aF-0.29999999999999716
aa(lp64
I0
aI0
aI0
aI1
aI0
aI1
aI0
aI0
aI1
aI0
aI0
aI0
aI0
aI0
aI1
aI0
aI0
aI0
aI0
aI0
aI0
aI0
aI0
aI1
aI0
aI0
aI0
aI1
aI0
aI0
aI1
aI1
aI0
aI0
aI0
aI0
aI0
aI1
aI1
aI0
aI0
aI0
aI1
aI0
aI0
aI0
aI1
aI1
aI0
aI0
aI1
aI0
aI1
aI1
aI1
aI0
aI1
aI0
aI1
aI1
aI1
aI1
aI0
atp65
.