((lp0
(lp1
F27.0
aF56.93939393939394
aF47.42
aF6.090909090909091
aF17.757575757575758
aF34.3
aF15.181818181818182
aF22.545454545454547
aF67.34
aF75.27272727272727
aF75.27
aF9.787878787878787
aF26.363636363636363
aF36.15151515151515
aF36.15
aF14.787878787878787
aF13.181818181818182
aF8.727272727272727
aF3.6363636363636362
aF19.484848484848484
aF21.424242424242426
aF54.666666666666664
aF39.19
aF5.9393939393939394
aF19.0
aF31.26
aF15.787878787878787
aF23.636363636363637
aF66.79
aF64.57575757575758
aF64.58
aF11.393939393939394
aF24.060606060606062
aF35.45454545454545
aF35.45
aF11.454545454545455
aF15.727272727272727
aF5.757575757575758
aF2.3636363636363638
aF18.818181818181817
aF5.575757575757574
aF2.2727272727272734
aF8.230000000000004
aF0.15151515151515138
aF-1.2424242424242422
aF3.0399999999999956
aF-0.6060606060606055
aF-1.09090909090909
aF0.5499999999999972
aF10.696969696969688
aF10.689999999999998
aF-1.6060606060606073
aF2.303030303030301
aF0.6969696969696955
aF0.6999999999999957
aF3.333333333333332
aF-2.545454545454545
aF2.969696969696969
aF1.2727272727272725
aF0.6666666666666679
aF22.236842105263158
aF50.28947368421053
aF44.22
aF6.842105263157895
aF20.026315789473685
aF34.17
aF17.394736842105264
aF23.57894736842105
aF73.77
aF68.71052631578948
aF68.71
aF9.289473684210526
aF23.36842105263158
aF32.6578947368421
aF32.66
aF12.210526315789474
aF12.0
aF7.026315789473684
aF2.263157894736842
aF18.026315789473685
aF21.18421052631579
aF50.94736842105263
aF41.58
aF5.105263157894737
aF16.105263157894736
aF31.7
aF11.947368421052632
aF17.605263157894736
aF67.86
aF59.421052631578945
aF59.42
aF8.81578947368421
aF21.236842105263158
aF30.05263157894737
aF30.05
aF10.710526315789474
aF13.921052631578947
aF5.2631578947368425
aF3.1578947368421053
aF20.5
aF1.0526315789473664
aF-0.6578947368421026
aF2.6400000000000006
aF1.7368421052631575
aF3.9210526315789487
aF2.4700000000000024
aF5.447368421052632
aF5.973684210526315
aF5.909999999999997
aF9.289473684210535
aF9.289999999999992
aF0.47368421052631504
aF2.1315789473684212
aF2.6052631578947327
aF2.609999999999996
aF1.5
aF-1.921052631578947
aF1.7631578947368416
aF-0.8947368421052633
aF-2.473684210526315
aa(lp2
F25.61111111111111
aF57.25
aF44.74
aF4.611111111111111
aF14.527777777777779
aF31.74
aF11.25
aF17.36111111111111
aF64.8
aF67.08333333333333
aF67.08
aF15.0
aF23.72222222222222
aF38.72222222222222
aF38.72
aF15.38888888888889
aF12.694444444444445
aF7.833333333333333
aF2.9166666666666665
aF15.555555555555555
aF20.88888888888889
aF51.861111111111114
aF40.28
aF5.444444444444445
aF18.13888888888889
aF30.02
aF10.25
aF15.416666666666666
aF66.49
aF57.47222222222222
aF57.47
aF10.25
aF20.36111111111111
aF30.61111111111111
aF30.61
aF11.166666666666666
aF14.13888888888889
aF6.416666666666667
aF3.5833333333333335
aF17.083333333333332
aF4.722222222222221
aF5.388888888888886
aF4.460000000000001
aF-0.8333333333333339
aF-3.6111111111111107
aF1.7199999999999989
aF1.0
aF1.9444444444444446
aF-1.6899999999999977
aF9.611111111111107
aF9.61
aF4.75
aF3.3611111111111107
aF8.11111111111111
aF8.11
aF4.222222222222223
aF-1.4444444444444446
aF1.416666666666666
aF-0.666666666666667
aF-1.5277777777777768
aF26.228571428571428
aF55.8
aF47.0
aF7.457142857142857
aF19.228571428571428
aF38.78
aF15.371428571428572
aF21.257142857142856
aF72.31
aF75.28571428571429
aF75.29
aF11.485714285714286
aF24.228571428571428
aF35.714285714285715
aF35.71
aF16.714285714285715
aF10.342857142857143
aF5.542857142857143
aF2.9714285714285715
aF15.142857142857142
aF24.942857142857143
aF57.371428571428574
aF43.48
aF6.6571428571428575
aF19.085714285714285
aF34.88
aF11.82857142857143
aF15.942857142857143
aF74.19
aF68.37142857142857
aF68.37
aF10.628571428571428
aF21.6
aF32.22857142857143
aF32.23
aF13.914285714285715
aF10.314285714285715
aF5.9714285714285715
aF3.342857142857143
aF18.085714285714285
aF1.2857142857142847
aF-1.5714285714285765
aF3.520000000000003
aF0.7999999999999998
aF0.14285714285714235
aF3.8999999999999986
aF3.5428571428571427
aF5.314285714285713
aF-1.8799999999999955
aF6.914285714285725
aF6.920000000000002
aF0.8571428571428577
aF2.6285714285714263
aF3.4857142857142875
aF3.480000000000004
aF2.8000000000000007
aF0.02857142857142847
aF-0.4285714285714288
aF-0.37142857142857144
aF-2.942857142857143
aa(lp3
F27.764705882352942
aF57.35294117647059
aF48.41
aF8.352941176470589
aF20.558823529411764
aF40.63
aF14.588235294117647
aF19.176470588235293
aF76.07
aF78.47058823529412
aF78.47
aF10.882352941176471
aF25.705882352941178
aF36.588235294117645
aF36.59
aF15.970588235294118
aF11.588235294117647
aF4.9411764705882355
aF5.176470588235294
aF16.470588235294116
aF25.176470588235293
aF59.5
aF42.31
aF4.235294117647059
aF14.058823529411764
aF30.13
aF11.823529411764707
aF17.823529411764707
aF66.34
aF66.41176470588235
aF66.41
aF11.470588235294118
aF20.764705882352942
aF32.23529411764706
aF32.24
aF9.764705882352942
aF10.852941176470589
aF5.647058823529412
aF2.323529411764706
aF17.61764705882353
aF2.5882352941176485
aF-2.147058823529413
aF6.099999999999994
aF4.11764705882353
aF6.5
aF10.500000000000004
aF2.7647058823529402
aF1.352941176470587
aF9.72999999999999
aF12.058823529411768
aF12.060000000000002
aF-0.5882352941176467
aF4.9411764705882355
aF4.352941176470587
aF4.350000000000001
aF6.205882352941176
aF0.735294117647058
aF-0.7058823529411766
aF2.8529411764705883
aF-1.147058823529413
aF24.8
aF55.51428571428571
aF44.67
aF7.142857142857143
aF20.114285714285714
aF35.51
aF12.6
aF18.0
aF70.0
aF69.34285714285714
aF69.34
aF8.857142857142858
aF23.685714285714287
aF32.542857142857144
aF32.54
aF12.628571428571428
aF11.2
aF8.257142857142858
aF4.514285714285714
aF18.114285714285714
aF21.742857142857144
aF55.05714285714286
aF39.49
aF5.171428571428572
aF17.2
aF30.07
aF14.085714285714285
aF19.942857142857143
aF70.63
aF62.74285714285714
aF62.74
aF13.2
aF24.714285714285715
aF37.91428571428571
aF37.91
aF9.914285714285715
aF15.085714285714285
aF5.428571428571429
aF3.342857142857143
aF17.857142857142858
aF3.057142857142857
aF0.4571428571428555
aF5.18
aF1.9714285714285715
aF2.9142857142857146
aF5.439999999999998
aF-1.4857142857142858
aF-1.942857142857143
aF-0.6299999999999955
aF6.600000000000001
aF6.600000000000001
aF-4.342857142857142
aF-1.0285714285714285
aF-5.371428571428567
aF-5.369999999999997
aF2.7142857142857135
aF-3.885714285714286
aF2.828571428571429
aF1.1714285714285713
aF0.25714285714285623
aa(lp4
F23.285714285714285
aF53.371428571428574
aF43.63
aF5.628571428571429
aF15.6
aF36.08
aF16.34285714285714
aF24.542857142857144
aF66.59
aF68.54285714285714
aF68.54
aF11.771428571428572
aF23.285714285714285
aF35.05714285714286
aF35.06
aF12.371428571428572
aF14.885714285714286
aF7.628571428571429
aF2.2857142857142856
aF21.62857142857143
aF20.942857142857143
aF51.42857142857143
aF40.72
aF6.314285714285714
aF19.65714285714286
aF32.12
aF17.685714285714287
aF24.6
aF71.89
aF65.88571428571429
aF65.89
aF11.2
aF22.285714285714285
aF33.48571428571429
aF33.49
aF11.942857142857143
aF15.685714285714285
aF7.0285714285714285
aF3.4
aF20.02857142857143
aF2.3428571428571416
aF1.942857142857143
aF2.9100000000000037
aF-0.685714285714285
aF-4.057142857142859
aF3.960000000000001
aF-1.3428571428571452
aF-0.05714285714285694
aF-5.299999999999997
aF2.6571428571428584
aF2.6500000000000057
aF0.571428571428573
aF1.0
aF1.5714285714285694
aF1.5700000000000003
aF0.4285714285714288
aF-0.7999999999999989
aF0.6000000000000005
aF-1.1142857142857143
aF1.6000000000000014
aF27.242424242424242
aF59.45454545454545
aF45.82
aF7.636363636363637
aF20.484848484848484
aF37.28
aF19.696969696969695
aF26.09090909090909
aF75.49
aF81.81818181818181
aF81.82
aF13.393939393939394
aF25.151515151515152
aF38.54545454545455
aF38.55
aF13.575757575757576
aF13.696969696969697
aF7.848484848484849
aF4.03030303030303
aF22.151515151515152
aF23.0
aF56.21212121212121
aF40.92
aF7.2727272727272725
aF21.636363636363637
aF33.61
aF19.575757575757574
aF27.575757575757574
aF70.99
aF72.84848484848484
aF72.85
aF11.818181818181818
aF22.060606060606062
aF33.878787878787875
aF33.88
aF13.515151515151516
aF15.272727272727273
aF6.575757575757576
aF4.2727272727272725
aF21.12121212121212
aF4.242424242424242
aF3.242424242424242
aF4.899999999999999
aF0.3636363636363642
aF-1.1515151515151523
aF3.6700000000000017
aF0.1212121212121211
aF-1.4848484848484844
aF4.5
aF8.969696969696969
aF8.969999999999999
aF1.5757575757575761
aF3.09090909090909
aF4.666666666666671
aF4.669999999999995
aF0.06060606060606055
aF-1.5757575757575761
aF1.2727272727272725
aF-0.2424242424242422
aF1.0303030303030312
aa(lp5
F27.88888888888889
aF61.44444444444444
aF45.39
aF5.305555555555555
aF15.777777777777779
aF33.63
aF18.11111111111111
aF25.13888888888889
aF72.04
aF79.19444444444444
aF79.19
aF13.222222222222221
aF24.666666666666668
aF37.888888888888886
aF37.89
aF14.305555555555555
aF12.777777777777779
aF7.333333333333333
aF4.194444444444445
aF21.27777777777778
aF23.88888888888889
aF56.69444444444444
aF42.14
aF4.944444444444445
aF15.38888888888889
aF32.13
aF17.25
aF25.305555555555557
aF68.17
aF69.97222222222223
aF69.97
aF11.694444444444445
aF22.61111111111111
aF34.30555555555556
aF34.31
aF11.055555555555555
aF16.055555555555557
aF6.111111111111111
aF3.0
aF20.97222222222222
aF4.0
aF4.75
aF3.25
aF0.3611111111111107
aF0.3888888888888893
aF1.5
aF0.8611111111111107
aF-0.16666666666666785
aF3.8700000000000045
aF9.222222222222214
aF9.219999999999999
aF1.5277777777777768
aF2.055555555555557
aF3.5833333333333286
aF3.5799999999999983
aF3.25
aF-3.2777777777777786
aF1.2222222222222223
aF1.1944444444444446
aF0.30555555555555713
aF25.323529411764707
aF55.588235294117645
aF45.56
aF8.058823529411764
aF19.529411764705884
aF41.27
aF14.382352941176471
aF19.41176470588235
aF74.09
aF73.08823529411765
aF73.09
aF10.088235294117647
aF21.41176470588235
aF31.5
aF31.5
aF15.176470588235293
aF10.382352941176471
aF7.911764705882353
aF2.1176470588235294
aF17.058823529411764
aF24.352941176470587
aF54.14705882352941
aF44.98
aF5.088235294117647
aF15.647058823529411
aF32.52
aF10.852941176470589
aF15.941176470588236
aF68.08
aF64.6470588235294
aF64.65
aF10.529411764705882
aF22.294117647058822
aF32.8235294117647
aF32.82
aF13.735294117647058
aF14.352941176470589
aF5.617647058823529
aF3.7058823529411766
aF17.176470588235293
aF0.9705882352941195
aF1.441176470588232
aF0.5800000000000054
aF2.9705882352941178
aF3.882352941176473
aF8.75
aF3.5294117647058822
aF3.470588235294116
aF6.010000000000005
aF8.441176470588246
aF8.439999999999998
aF-0.4411764705882355
aF-0.882352941176471
aF-1.323529411764703
aF-1.3200000000000003
aF1.4411764705882355
aF-3.9705882352941178
aF2.2941176470588243
aF-1.5882352941176472
aF-0.117647058823529
aa(lp6
F25.735294117647058
aF54.294117647058826
aF47.4
aF5.264705882352941
aF16.58823529411765
aF31.74
aF13.529411764705882
aF21.794117647058822
aF62.08
aF70.26470588235294
aF70.26
aF13.058823529411764
aF23.91176470588235
aF36.970588235294116
aF36.97
aF13.470588235294118
aF13.323529411764707
aF7.382352941176471
aF4.588235294117647
aF16.235294117647058
aF21.91176470588235
aF54.205882352941174
aF40.42
aF6.617647058823529
aF18.88235294117647
aF35.05
aF11.352941176470589
aF16.38235294117647
aF69.3
aF61.794117647058826
aF61.79
aF11.029411764705882
aF19.41176470588235
aF30.441176470588236
aF30.44
aF12.352941176470589
aF13.323529411764707
aF5.9411764705882355
aF3.1176470588235294
aF18.176470588235293
aF3.8235294117647065
aF0.08823529411765207
aF6.979999999999997
aF-1.3529411764705879
aF-2.2941176470588225
aF-3.3099999999999987
aF2.1764705882352935
aF5.4117647058823515
aF-7.219999999999999
aF8.470588235294116
aF8.470000000000006
aF2.0294117647058822
aF4.5
aF6.5294117647058805
aF6.529999999999998
aF1.117647058823529
aF0.0
aF1.4411764705882355
aF1.4705882352941173
aF-1.9411764705882355
aF26.783783783783782
aF58.75675675675676
aF45.58
aF5.891891891891892
aF18.405405405405407
aF32.01
aF14.054054054054054
aF20.945945945945947
aF67.1
aF73.51351351351352
aF73.51
aF11.91891891891892
aF24.64864864864865
aF36.567567567567565
aF36.57
aF14.324324324324325
aF13.243243243243244
aF7.837837837837838
aF3.675675675675676
aF19.81081081081081
aF21.72972972972973
aF54.891891891891895
aF39.59
aF6.216216216216216
aF20.91891891891892
aF29.72
aF15.54054054054054
aF22.35135135135135
aF69.53
aF65.21621621621621
aF65.22
aF11.756756756756756
aF23.675675675675677
aF35.432432432432435
aF35.43
aF11.378378378378379
aF16.18918918918919
aF6.081081081081081
aF4.297297297297297
aF19.027027027027028
aF5.054054054054053
aF3.864864864864863
aF5.989999999999995
aF-0.3243243243243237
aF-2.5135135135135123
aF2.289999999999999
aF-1.486486486486486
aF-1.4054054054054035
aF-2.430000000000007
aF8.297297297297305
aF8.290000000000006
aF0.16216216216216317
aF0.9729729729729719
aF1.1351351351351298
aF1.1400000000000006
aF2.9459459459459456
aF-2.9459459459459456
aF1.756756756756757
aF-0.6216216216216215
aF0.7837837837837824
aa(lp7
F25.0
aF58.189189189189186
aF42.96
aF7.513513513513513
aF20.513513513513512
aF36.63
aF17.16216216216216
aF23.864864864864863
aF71.91
aF74.67567567567568
aF74.68
aF11.972972972972974
aF25.08108108108108
aF37.054054054054056
aF37.05
aF14.162162162162161
aF12.783783783783784
aF7.513513513513513
aF2.6216216216216215
aF18.81081081081081
aF24.45945945945946
aF58.513513513513516
aF41.8
aF6.0
aF19.216216216216218
aF31.22
aF14.513513513513514
aF20.72972972972973
aF70.01
aF69.43243243243244
aF69.43
aF12.756756756756756
aF25.0
aF37.75675675675676
aF37.76
aF13.91891891891892
aF15.297297297297296
aF5.783783783783784
aF3.5135135135135136
aF20.16216216216216
aF0.5405405405405403
aF-0.3243243243243299
aF1.1600000000000037
aF1.5135135135135132
aF1.2972972972972947
aF5.410000000000004
aF2.6486486486486474
aF3.1351351351351333
aF1.8999999999999915
aF5.243243243243242
aF5.25
aF-0.7837837837837824
aF0.0810810810810807
aF-0.7027027027027017
aF-0.7100000000000009
aF0.2432432432432421
aF-2.5135135135135123
aF1.729729729729729
aF-0.8918918918918921
aF-1.3513513513513509
aF26.61764705882353
aF53.38235294117647
aF49.86
aF6.235294117647059
aF16.11764705882353
aF38.69
aF14.058823529411764
aF19.764705882352942
aF71.13
aF73.52941176470588
aF73.53
aF9.794117647058824
aF23.5
aF33.294117647058826
aF33.29
aF15.411764705882353
aF13.911764705882353
aF6.970588235294118
aF4.735294117647059
aF17.029411764705884
aF23.176470588235293
aF55.588235294117645
aF41.69
aF6.352941176470588
aF19.0
aF33.44
aF13.352941176470589
aF18.58823529411765
aF71.84
aF66.05882352941177
aF66.06
aF11.176470588235293
aF19.794117647058822
aF30.970588235294116
aF30.97
aF13.147058823529411
aF13.088235294117647
aF7.235294117647059
aF3.8823529411764706
aF18.441176470588236
aF3.4411764705882355
aF-2.205882352941174
aF8.170000000000002
aF-0.117647058823529
aF-2.882352941176471
aF5.25
aF0.7058823529411757
aF1.1764705882352935
aF-0.710000000000008
aF7.470588235294116
aF7.469999999999999
aF-1.3823529411764692
aF3.7058823529411775
aF2.32352941176471
aF2.3200000000000003
aF2.264705882352942
aF0.8235294117647065
aF-0.2647058823529411
aF0.8529411764705883
aF-1.4117647058823515
aa(lp8
F21.34285714285714
aF49.74285714285714
aF42.91
aF6.6571428571428575
aF18.82857142857143
aF35.36
aF13.971428571428572
aF18.428571428571427
aF75.81
aF63.31428571428572
aF63.31
aF9.514285714285714
aF22.771428571428572
aF32.285714285714285
aF32.29
aF10.485714285714286
aF10.628571428571428
aF5.6571428571428575
aF2.0
aF15.885714285714286
aF19.8
aF48.714285714285715
aF40.65
aF5.828571428571428
aF17.514285714285716
aF33.28
aF9.685714285714285
aF14.028571428571428
aF69.04
aF55.114285714285714
aF55.11
aF8.342857142857143
aF21.428571428571427
aF29.771428571428572
aF29.77
aF8.942857142857143
aF12.142857142857142
aF4.6571428571428575
aF1.9714285714285715
aF18.457142857142856
aF1.542857142857141
aF1.028571428571425
aF2.259999999999998
aF0.8285714285714292
aF1.3142857142857132
aF2.0799999999999983
aF4.2857142857142865
aF4.399999999999999
aF6.769999999999996
aF8.200000000000003
aF8.200000000000003
aF1.1714285714285708
aF1.3428571428571452
aF2.5142857142857125
aF2.5199999999999996
aF1.5428571428571427
aF-1.5142857142857142
aF1.0
aF0.02857142857142847
aF-2.5714285714285694
aF26.441176470588236
aF57.35294117647059
aF46.1
aF6.794117647058823
aF20.441176470588236
aF33.24
aF13.411764705882353
aF18.735294117647058
aF71.59
aF73.08823529411765
aF73.09
aF9.911764705882353
aF23.88235294117647
aF33.794117647058826
aF33.79
aF16.205882352941178
aF11.617647058823529
aF7.823529411764706
aF3.4411764705882355
aF20.323529411764707
aF20.38235294117647
aF51.11764705882353
aF39.87
aF5.794117647058823
aF17.470588235294116
aF33.16
aF17.205882352941178
aF24.323529411764707
aF70.74
aF63.76470588235294
aF63.76
aF10.588235294117647
aF23.88235294117647
aF34.470588235294116
aF34.47
aF10.352941176470589
aF15.735294117647058
aF4.794117647058823
aF2.676470588235294
aF17.558823529411764
aF6.0588235294117645
aF6.235294117647058
aF6.230000000000004
aF1.0
aF2.9705882352941195
aF0.0800000000000054
aF-3.7941176470588243
aF-5.5882352941176485
aF0.8500000000000085
aF9.32352941176471
aF9.330000000000005
aF-0.6764705882352935
aF0.0
aF-0.6764705882352899
aF-0.6799999999999997
aF5.852941176470589
aF-4.117647058823529
aF3.0294117647058822
aF0.7647058823529416
aF2.764705882352942
aa(lp9
F25.515151515151516
aF56.15151515151515
aF45.44
aF6.666666666666667
aF16.696969696969695
aF39.93
aF17.393939393939394
aF24.21212121212121
aF71.84
aF75.0909090909091
aF75.09
aF10.272727272727273
aF26.12121212121212
aF36.39393939393939
aF36.39
aF15.0
aF13.0
aF6.151515151515151
aF2.5757575757575757
aF17.848484848484848
aF25.272727272727273
aF59.21212121212121
aF42.68
aF7.151515151515151
aF20.636363636363637
aF34.65
aF12.93939393939394
aF18.272727272727273
aF70.81
aF70.63636363636364
aF70.64
aF10.909090909090908
aF24.21212121212121
aF35.121212121212125
aF35.12
aF14.484848484848484
aF13.666666666666666
aF6.636363636363637
aF3.4242424242424243
aF20.484848484848484
aF0.2424242424242422
aF-3.0606060606060623
aF2.759999999999998
aF-0.4848484848484844
aF-3.9393939393939412
aF5.280000000000001
aF4.454545454545455
aF5.939393939393938
aF1.0300000000000011
aF4.454545454545453
aF4.450000000000003
aF-0.6363636363636349
aF1.90909090909091
aF1.2727272727272663
aF1.2700000000000031
aF0.5151515151515156
aF-0.6666666666666661
aF-0.4848484848484853
aF-0.8484848484848486
aF-2.6363636363636367
aF28.694444444444443
aF58.638888888888886
aF48.93
aF7.277777777777778
aF18.0
aF40.43
aF16.916666666666668
aF24.194444444444443
aF69.92
aF81.58333333333333
aF81.58
aF13.0
aF27.47222222222222
aF40.47222222222222
aF40.47
aF16.916666666666668
aF13.055555555555555
aF8.36111111111111
aF6.444444444444445
aF18.27777777777778
aF22.52777777777778
aF59.5
aF37.86
aF6.361111111111111
aF19.194444444444443
aF33.14
aF12.805555555555555
aF18.666666666666668
aF68.6
aF64.22222222222223
aF64.22
aF12.777777777777779
aF20.86111111111111
aF33.638888888888886
aF33.64
aF12.416666666666666
aF13.944444444444445
aF6.5
aF3.6944444444444446
aF19.97222222222222
aF6.166666666666664
aF-0.8611111111111143
aF11.07
aF0.916666666666667
aF-1.1944444444444429
aF7.289999999999999
aF4.1111111111111125
aF5.527777777777775
aF1.3200000000000074
aF17.3611111111111
aF17.36
aF0.22222222222222143
aF6.611111111111111
aF6.833333333333336
aF6.829999999999998
aF4.500000000000002
aF-0.8888888888888893
aF1.8611111111111107
aF2.75
aF-1.6944444444444429
aa(lp10
F27.166666666666668
aF54.47222222222222
aF49.87
aF6.277777777777778
aF16.63888888888889
aF37.73
aF15.86111111111111
aF22.805555555555557
aF69.55
aF76.47222222222223
aF76.47
aF12.194444444444445
aF24.444444444444443
aF36.638888888888886
aF36.64
aF15.444444444444445
aF14.63888888888889
aF9.63888888888889
aF5.444444444444445
aF17.166666666666668
aF21.13888888888889
aF54.638888888888886
aF38.69
aF5.416666666666667
aF16.27777777777778
aF33.28
aF12.722222222222221
aF18.333333333333332
aF69.39
aF60.416666666666664
aF60.42
aF11.777777777777779
aF18.52777777777778
aF30.305555555555557
aF30.31
aF11.11111111111111
aF16.75
aF6.5
aF2.7222222222222223
aF18.61111111111111
aF6.027777777777779
aF-0.1666666666666643
aF11.18
aF0.8611111111111107
aF0.3611111111111107
aF4.449999999999996
aF3.1388888888888893
aF4.472222222222225
aF0.1599999999999966
aF16.055555555555564
aF16.049999999999997
aF0.4166666666666661
aF5.916666666666664
aF6.333333333333329
aF6.330000000000002
aF4.333333333333334
aF-2.1111111111111107
aF3.1388888888888893
aF2.7222222222222223
aF-1.4444444444444429
aF26.03030303030303
aF55.42424242424242
aF46.97
aF6.151515151515151
aF16.727272727272727
aF36.78
aF18.666666666666668
aF25.87878787878788
aF72.13
aF76.87878787878788
aF76.88
aF10.93939393939394
aF25.333333333333332
aF36.27272727272727
aF36.27
aF13.212121212121213
aF13.575757575757576
aF5.696969696969697
aF5.181818181818182
aF19.151515151515152
aF24.818181818181817
aF60.36363636363637
aF41.11
aF6.333333333333333
aF18.818181818181817
aF33.66
aF12.93939393939394
aF20.545454545454547
aF62.98
aF68.9090909090909
aF68.91
aF13.696969696969697
aF22.12121212121212
aF35.81818181818182
aF35.82
aF11.969696969696969
aF13.484848484848484
aF6.696969696969697
aF3.878787878787879
aF21.060606060606062
aF1.2121212121212146
aF-4.939393939393945
aF5.859999999999999
aF-0.18181818181818166
aF-2.09090909090909
aF3.1200000000000045
aF5.727272727272728
aF5.333333333333332
aF9.149999999999999
aF7.969696969696969
aF7.969999999999999
aF-2.757575757575758
aF3.212121212121211
aF0.45454545454545325
aF0.45000000000000284
aF1.242424242424244
aF0.09090909090909172
aF-1.0
aF1.3030303030303028
aF-1.90909090909091
aa(lp11
F27.545454545454547
aF59.484848484848484
aF46.31
aF8.696969696969697
aF23.484848484848484
aF37.03
aF15.484848484848484
aF22.03030303030303
aF70.29
aF79.27272727272727
aF79.27
aF12.424242424242424
aF25.363636363636363
aF37.78787878787879
aF37.79
aF20.393939393939394
aF13.393939393939394
aF7.787878787878788
aF2.5757575757575757
aF20.03030303030303
aF23.90909090909091
aF55.57575757575758
aF43.02
aF6.181818181818182
aF18.78787878787879
aF32.9
aF15.212121212121213
aF22.333333333333332
aF68.11
aF69.21212121212122
aF69.21
aF10.363636363636363
aF23.181818181818183
aF33.54545454545455
aF33.55
aF16.484848484848484
aF15.454545454545455
aF6.363636363636363
aF2.8484848484848486
aF20.484848484848484
aF3.6363636363636367
aF3.9090909090909065
aF3.289999999999999
aF2.5151515151515156
aF4.6969696969696955
aF4.130000000000003
aF0.2727272727272716
aF-0.303030303030301
aF2.180000000000007
aF10.060606060606048
aF10.060000000000002
aF2.0606060606060606
aF2.18181818181818
aF4.242424242424242
aF4.240000000000002
aF3.90909090909091
aF-2.0606060606060606
aF1.4242424242424248
aF-0.27272727272727293
aF-0.45454545454545325
aF27.583333333333332
aF56.666666666666664
aF48.68
aF7.083333333333333
aF18.38888888888889
aF38.52
aF14.722222222222221
aF20.305555555555557
aF72.5
aF76.97222222222223
aF76.97
aF12.305555555555555
aF26.805555555555557
aF39.111111111111114
aF39.11
aF14.11111111111111
aF13.63888888888889
aF6.583333333333333
aF6.722222222222222
aF17.75
aF22.666666666666668
aF59.333333333333336
aF38.2
aF6.916666666666667
aF20.805555555555557
aF33.24
aF13.36111111111111
aF19.666666666666668
aF67.94
aF65.61111111111111
aF65.61
aF13.055555555555555
aF19.666666666666668
aF32.72222222222222
aF32.72
aF13.083333333333334
aF12.083333333333334
aF6.027777777777778
aF2.361111111111111
aF18.333333333333332
aF4.916666666666664
aF-2.6666666666666714
aF10.479999999999997
aF0.16666666666666607
aF-2.416666666666668
aF5.280000000000001
aF1.3611111111111107
aF0.6388888888888893
aF4.560000000000002
aF11.361111111111114
aF11.36
aF-0.75
aF7.138888888888889
aF6.388888888888893
aF6.390000000000001
aF1.0277777777777768
aF1.5555555555555554
aF0.5555555555555554
aF4.361111111111111
aF-0.5833333333333321
aa(lp12
F24.71875
aF51.125
aF48.35
aF6.5625
aF16.4375
aF39.92
aF13.625
aF18.84375
aF72.31
aF69.625
aF69.62
aF8.84375
aF23.90625
aF32.75
aF32.75
aF12.375
aF12.1875
aF6.4375
aF3.3125
aF17.84375
aF21.5625
aF51.6875
aF41.72
aF5.65625
aF15.71875
aF35.98
aF12.46875
aF19.03125
aF65.52
aF61.25
aF61.25
aF9.9375
aF20.09375
aF30.03125
aF30.03
aF9.96875
aF12.625
aF5.625
aF2.5625
aF17.625
aF3.15625
aF-0.5625
aF6.630000000000003
aF0.90625
aF0.71875
aF3.940000000000005
aF1.15625
aF-0.1875
aF6.790000000000006
aF8.375
aF8.370000000000005
aF-1.09375
aF3.8125
aF2.71875
aF2.719999999999999
aF2.40625
aF-0.4375
aF0.8125
aF0.75
aF0.21875
aF25.34285714285714
aF57.8
aF43.85
aF7.8
aF21.114285714285714
aF36.94
aF17.37142857142857
aF25.97142857142857
aF66.89
aF75.85714285714286
aF75.86
aF13.114285714285714
aF25.37142857142857
aF38.48571428571429
aF38.49
aF14.2
aF11.057142857142857
aF6.628571428571429
aF3.4285714285714284
aF17.571428571428573
aF23.514285714285716
aF54.91428571428571
aF42.82
aF7.285714285714286
aF21.857142857142858
aF33.33
aF12.885714285714286
aF19.228571428571428
aF67.01
aF67.2
aF67.2
aF9.457142857142857
aF23.82857142857143
aF33.285714285714285
aF33.29
aF13.342857142857143
aF13.571428571428571
aF5.6
aF2.7714285714285714
aF22.514285714285716
aF1.8285714285714256
aF2.885714285714286
aF1.0300000000000011
aF0.5142857142857142
aF-0.7428571428571438
aF3.6099999999999994
aF4.485714285714284
aF6.742857142857144
aF-0.12000000000000455
aF8.657142857142858
aF8.659999999999997
aF3.6571428571428566
aF1.542857142857141
aF5.200000000000003
aF5.200000000000003
aF0.8571428571428559
aF-2.5142857142857142
aF1.0285714285714294
aF0.657142857142857
aF-4.942857142857143
aa(lp13
F26.161290322580644
aF60.29032258064516
aF43.39
aF4.32258064516129
aF14.03225806451613
aF30.8
aF16.161290322580644
aF24.580645161290324
aF65.75
aF72.80645161290323
aF72.81
aF14.935483870967742
aF27.193548387096776
aF42.12903225806452
aF42.13
aF11.903225806451612
aF15.193548387096774
aF7.129032258064516
aF5.225806451612903
aF20.129032258064516
aF23.806451612903224
aF60.96774193548387
aF39.05
aF5.774193548387097
aF19.774193548387096
aF29.2
aF16.129032258064516
aF23.483870967741936
aF68.68
aF69.51612903225806
aF69.52
aF13.838709677419354
aF23.516129032258064
aF37.354838709677416
aF37.35
aF11.419354838709678
aF13.741935483870968
aF7.161290322580645
aF3.903225806451613
aF20.903225806451612
aF2.35483870967742
aF-0.6774193548387117
aF4.340000000000003
aF-1.451612903225807
aF-5.741935483870966
aF1.6000000000000014
aF0.032258064516128115
aF1.096774193548388
aF-2.930000000000007
aF3.2903225806451672
aF3.2900000000000063
aF1.096774193548388
aF3.6774193548387117
aF4.774193548387103
aF4.780000000000001
aF0.48387096774193417
aF1.451612903225806
aF-0.032258064516129004
aF1.32258064516129
aF-0.7741935483870961
aF29.558823529411764
aF63.470588235294116
aF46.57
aF5.735294117647059
aF16.647058823529413
aF34.45
aF16.352941176470587
aF25.823529411764707
aF63.33
aF81.20588235294117
aF81.21
aF14.794117647058824
aF27.11764705882353
aF41.911764705882355
aF41.91
aF14.382352941176471
aF13.647058823529411
aF7.911764705882353
aF5.705882352941177
aF19.705882352941178
aF24.794117647058822
aF61.5
aF40.32
aF5.617647058823529
aF17.470588235294116
aF32.15
aF14.823529411764707
aF21.676470588235293
aF68.39
aF70.02941176470588
aF70.03
aF12.794117647058824
aF23.264705882352942
aF36.05882352941177
aF36.06
aF11.529411764705882
aF15.176470588235293
aF7.264705882352941
aF3.7058823529411766
aF21.08823529411765
aF4.764705882352942
aF1.970588235294116
aF6.25
aF0.11764705882352988
aF-0.823529411764703
aF2.3000000000000043
aF1.5294117647058805
aF4.147058823529413
aF-5.060000000000002
aF11.17647058823529
aF11.179999999999993
aF2.0
aF3.852941176470587
aF5.852941176470587
aF5.849999999999994
aF2.8529411764705888
aF-1.5294117647058822
aF0.6470588235294121
aF2.0
aF-1.382352941176471
aa(lp14
F26.176470588235293
aF59.0
aF44.37
aF5.970588235294118
aF19.058823529411764
aF31.33
aF13.882352941176471
aF19.735294117647058
aF70.34
aF72.20588235294117
aF72.21
aF13.382352941176471
aF23.823529411764707
aF37.205882352941174
aF37.21
aF14.088235294117647
aF12.441176470588236
aF7.147058823529412
aF2.764705882352941
aF14.735294117647058
aF24.735294117647058
aF57.411764705882355
aF43.08
aF6.147058823529412
aF18.91176470588235
aF32.5
aF10.794117647058824
aF15.882352941176471
aF67.96
aF66.41176470588235
aF66.41
aF11.647058823529411
aF22.764705882352942
aF34.411764705882355
aF34.41
aF12.911764705882353
aF13.676470588235293
aF6.676470588235294
aF3.9705882352941178
aF17.176470588235293
aF1.4411764705882355
aF1.588235294117645
aF1.2899999999999991
aF-0.17647058823529438
aF0.14705882352941302
aF-1.1700000000000017
aF3.0882352941176467
aF3.852941176470587
aF2.3800000000000097
aF5.794117647058826
aF5.799999999999997
aF1.7352941176470598
aF1.0588235294117645
aF2.794117647058819
aF2.8000000000000043
aF1.1764705882352935
aF-1.235294117647058
aF0.47058823529411775
aF-1.2058823529411766
aF-2.4411764705882355
aF28.47222222222222
aF58.888888888888886
aF48.35
aF8.11111111111111
aF19.444444444444443
aF41.71
aF18.055555555555557
aF22.86111111111111
aF78.98
aF83.11111111111111
aF83.11
aF10.194444444444445
aF26.805555555555557
aF37.0
aF37.0
aF15.75
aF11.583333333333334
aF8.527777777777779
aF3.5
aF17.25
aF23.22222222222222
aF56.916666666666664
aF40.8
aF6.111111111111111
aF18.36111111111111
aF33.28
aF13.88888888888889
aF20.36111111111111
aF68.21
aF66.44444444444444
aF66.44
aF10.333333333333334
aF22.47222222222222
aF32.80555555555556
aF32.81
aF12.36111111111111
aF15.694444444444445
aF6.027777777777778
aF2.9166666666666665
aF18.555555555555557
aF5.25
aF1.9722222222222214
aF7.550000000000004
aF2.0
aF1.0833333333333321
aF8.43
aF4.166666666666668
aF2.5
aF10.77000000000001
aF16.66666666666667
aF16.67
aF-0.13888888888888928
aF4.333333333333336
aF4.194444444444443
aF4.189999999999998
aF3.3888888888888893
aF-4.111111111111111
aF2.500000000000001
aF0.5833333333333335
aF-1.3055555555555571
aa(lp15
F24.181818181818183
aF52.96969696969697
aF45.65
aF5.424242424242424
aF16.303030303030305
aF33.27
aF20.060606060606062
aF27.90909090909091
aF71.88
aF73.84848484848484
aF73.85
aF11.030303030303031
aF25.939393939393938
aF36.96969696969697
aF36.97
aF11.93939393939394
aF14.696969696969697
aF4.363636363636363
aF2.8484848484848486
aF17.87878787878788
aF25.636363636363637
aF59.18181818181818
aF43.32
aF5.121212121212121
aF15.818181818181818
aF32.38
aF13.393939393939394
aF19.0
aF70.49
aF69.78787878787878
aF69.79
aF11.090909090909092
aF22.060606060606062
aF33.15151515151515
aF33.15
aF11.303030303030303
aF12.727272727272727
aF7.212121212121212
aF4.03030303030303
aF22.545454545454547
aF-1.4545454545454533
aF-6.212121212121211
aF2.3299999999999983
aF0.30303030303030276
aF0.4848484848484862
aF0.8900000000000006
aF6.666666666666668
aF8.90909090909091
aF1.3900000000000006
aF4.060606060606062
aF4.059999999999988
aF-0.06060606060606055
aF3.8787878787878753
aF3.81818181818182
aF3.8200000000000003
aF0.6363636363636367
aF1.9696969696969706
aF-2.8484848484848486
aF-1.1818181818181817
aF-4.666666666666668
aF26.513513513513512
aF58.972972972972975
aF44.96
aF6.837837837837838
aF19.0
aF35.99
aF19.83783783783784
aF29.675675675675677
aF66.85
aF79.70270270270271
aF79.7
aF15.108108108108109
aF23.72972972972973
aF38.83783783783784
aF38.84
aF14.621621621621621
aF14.297297297297296
aF7.405405405405405
aF5.054054054054054
aF22.37837837837838
aF23.054054054054053
aF55.054054054054056
aF41.88
aF5.648648648648648
aF16.62162162162162
aF33.98
aF18.08108108108108
aF25.81081081081081
aF70.05
aF69.83783783783784
aF69.84
aF12.18918918918919
aF22.324324324324323
aF34.513513513513516
aF34.51
aF11.891891891891891
aF16.864864864864863
aF6.918918918918919
aF3.3513513513513513
aF24.16216216216216
aF3.4594594594594597
aF3.9189189189189193
aF3.0799999999999983
aF1.1891891891891895
aF2.378378378378379
aF2.010000000000005
aF1.756756756756758
aF3.8648648648648667
aF-3.200000000000003
aF9.86486486486487
aF9.86
aF2.9189189189189193
aF1.405405405405407
aF4.324324324324323
aF4.330000000000005
aF2.72972972972973
aF-2.5675675675675667
aF0.48648648648648596
aF1.702702702702703
aF-1.7837837837837824
aa(lp16
F24.428571428571427
aF56.51428571428571
aF43.23
aF5.057142857142857
aF16.428571428571427
aF30.78
aF15.342857142857143
aF23.285714285714285
aF65.89
aF69.25714285714285
aF69.26
aF12.714285714285714
aF23.771428571428572
aF36.48571428571429
aF36.49
aF10.914285714285715
aF14.82857142857143
aF8.371428571428572
aF3.2
aF19.228571428571428
aF22.885714285714286
aF54.77142857142857
aF41.78
aF7.428571428571429
aF22.34285714285714
aF33.25
aF14.285714285714286
aF21.6
aF66.14
aF67.48571428571428
aF67.49
aF12.142857142857142
aF23.571428571428573
aF35.714285714285715
aF35.71
aF13.228571428571428
aF16.62857142857143
aF7.3428571428571425
aF3.742857142857143
aF19.2
aF1.542857142857141
aF1.7428571428571402
aF1.4499999999999957
aF-2.371428571428572
aF-5.914285714285715
aF-2.469999999999999
aF1.057142857142857
aF1.6857142857142833
aF-0.25
aF1.7714285714285722
aF1.7700000000000102
aF0.5714285714285712
aF0.1999999999999993
aF0.7714285714285722
aF0.7800000000000011
aF-2.314285714285713
aF-1.8000000000000007
aF1.0285714285714294
aF-0.5428571428571427
aF0.02857142857142847
aF28.05263157894737
aF58.63157894736842
aF47.85
aF6.078947368421052
aF18.342105263157894
aF33.14
aF17.07894736842105
aF25.55263157894737
aF66.84
aF79.26315789473684
aF79.26
aF14.421052631578947
aF27.263157894736842
aF41.68421052631579
aF41.68
aF15.078947368421053
aF14.394736842105264
aF7.342105263157895
aF7.184210526315789
aF16.86842105263158
aF23.026315789473685
aF60.89473684210526
aF37.81
aF6.447368421052632
aF20.605263157894736
aF31.29
aF12.447368421052632
aF18.105263157894736
aF68.75
aF64.94736842105263
aF64.95
aF12.842105263157896
aF20.763157894736842
aF33.60526315789474
aF33.61
aF11.0
aF13.973684210526315
aF6.868421052631579
aF3.1315789473684212
aF20.92105263157895
aF5.026315789473685
aF-2.2631578947368425
aF10.04
aF-0.36842105263157965
aF-2.2631578947368425
aF1.8500000000000014
aF4.6315789473684195
aF7.447368421052634
aF-1.9099999999999966
aF14.315789473684205
aF14.310000000000002
aF1.5789473684210513
aF6.5
aF8.078947368421048
aF8.07
aF4.078947368421053
aF0.4210526315789487
aF0.47368421052631593
aF4.052631578947368
aF-4.05263157894737
aa(lp17
F21.323529411764707
aF52.294117647058826
aF40.78
aF4.147058823529412
aF13.705882352941176
aF30.26
aF16.91176470588235
aF25.323529411764707
aF66.78
aF63.705882352941174
aF63.71
aF12.411764705882353
aF25.41176470588235
aF37.8235294117647
aF37.82
aF12.382352941176471
aF16.735294117647058
aF6.735294117647059
aF3.5588235294117645
aF22.470588235294116
aF20.529411764705884
aF50.588235294117645
aF40.58
aF5.0
aF15.529411764705882
aF32.2
aF18.264705882352942
aF27.58823529411765
aF66.2
aF64.32352941176471
aF64.32
aF9.441176470588236
aF22.5
aF31.941176470588236
aF31.94
aF11.529411764705882
aF13.911764705882353
aF7.676470588235294
aF4.382352941176471
aF20.794117647058822
aF0.7941176470588225
aF1.705882352941181
aF0.20000000000000284
aF-0.8529411764705879
aF-1.8235294117647065
aF-1.9400000000000013
aF-1.3529411764705905
aF-2.264705882352942
aF0.5799999999999983
aF-0.6176470588235361
aF-0.6099999999999923
aF2.9705882352941178
aF2.9117647058823515
aF5.8823529411764675
aF5.879999999999999
aF0.8529411764705888
aF2.8235294117647047
aF-0.9411764705882355
aF-0.8235294117647065
aF1.6764705882352935
aF26.225
aF59.375
aF44.17
aF7.525
aF19.55
aF38.49
aF17.05
aF22.475
aF75.86
aF77.025
aF77.03
aF14.55
aF24.45
aF39.0
aF39.0
aF13.875
aF11.0
aF6.65
aF4.05
aF18.05
aF22.1
aF55.1
aF40.11
aF3.95
aF13.975
aF28.26
aF12.875
aF18.75
aF68.67
aF61.025
aF61.02
aF11.7
aF21.05
aF32.75
aF32.75
aF10.825
aF14.225
aF5.25
aF3.875
aF19.6
aF4.125
aF4.274999999999999
aF4.060000000000002
aF3.575
aF5.575000000000001
aF10.23
aF4.175000000000001
aF3.7250000000000014
aF7.189999999999998
aF16.000000000000007
aF16.009999999999998
aF2.8500000000000014
aF3.3999999999999986
aF6.25
aF6.25
aF3.0500000000000007
aF-3.2249999999999996
aF1.4000000000000004
aF0.17499999999999982
aF-1.5500000000000007
aa(lp18
F26.057142857142857
aF55.68571428571428
aF46.79
aF7.0285714285714285
aF17.62857142857143
aF39.87
aF13.228571428571428
aF18.885714285714286
aF70.05
aF72.37142857142857
aF72.37
aF10.942857142857143
aF24.4
aF35.34285714285714
aF35.34
aF16.65714285714286
aF12.6
aF7.8
aF5.685714285714286
aF16.542857142857144
aF22.257142857142856
aF55.6
aF40.03
aF7.142857142857143
aF20.97142857142857
aF34.06
aF12.4
aF18.228571428571428
aF68.03
aF64.05714285714286
aF64.06
aF11.8
aF21.857142857142858
aF33.65714285714286
aF33.66
aF13.114285714285714
aF14.17142857142857
aF6.571428571428571
aF2.6285714285714286
aF17.542857142857144
aF3.8000000000000007
aF0.08571428571428186
aF6.759999999999998
aF-0.11428571428571477
aF-3.3428571428571416
aF5.809999999999995
aF0.8285714285714274
aF0.6571428571428584
aF2.019999999999996
aF8.314285714285703
aF8.310000000000002
aF-0.8571428571428577
aF2.542857142857141
aF1.6857142857142833
aF1.6800000000000068
aF3.5428571428571445
aF-1.5714285714285712
aF1.2285714285714286
aF3.0571428571428574
aF-1.0
aF27.457142857142856
aF59.48571428571429
aF46.16
aF7.142857142857143
aF18.97142857142857
aF37.65
aF17.742857142857144
aF24.942857142857143
aF71.13
aF79.8
aF79.8
aF12.685714285714285
aF27.742857142857144
aF40.42857142857143
aF40.43
aF14.114285714285714
aF12.914285714285715
aF6.714285714285714
aF3.7714285714285714
aF18.914285714285715
aF25.257142857142856
aF61.65714285714286
aF40.96
aF5.742857142857143
aF19.257142857142856
aF29.82
aF13.257142857142858
aF20.257142857142856
aF65.44
aF69.51428571428572
aF69.51
aF11.857142857142858
aF23.314285714285713
aF35.17142857142857
aF35.17
aF13.4
aF12.82857142857143
aF6.4
aF5.0
aF20.771428571428572
aF2.1999999999999993
aF-2.171428571428571
aF5.199999999999996
aF1.4000000000000004
aF-0.2857142857142847
aF7.829999999999998
aF4.485714285714286
aF4.685714285714287
aF5.689999999999998
aF10.285714285714278
aF10.289999999999992
aF0.8285714285714274
aF4.428571428571431
aF5.25714285714286
aF5.259999999999998
aF0.7142857142857135
aF0.08571428571428541
aF0.31428571428571406
aF-1.2285714285714286
aF-1.8571428571428577
aa(lp19
F27.029411764705884
aF58.73529411764706
aF46.02
aF8.441176470588236
aF22.764705882352942
aF37.08
aF15.794117647058824
aF22.558823529411764
aF70.01
aF78.29411764705883
aF78.29
aF10.529411764705882
aF25.11764705882353
aF35.64705882352941
aF35.65
aF14.235294117647058
aF12.852941176470589
aF5.970588235294118
aF3.264705882352941
aF17.5
aF28.058823529411764
aF62.55882352941177
aF44.85
aF7.705882352941177
aF21.61764705882353
aF35.65
aF13.794117647058824
aF20.0
aF68.97
aF77.61764705882354
aF77.62
aF12.970588235294118
aF24.735294117647058
aF37.705882352941174
aF37.71
aF16.205882352941178
aF13.294117647058824
aF5.647058823529412
aF2.5588235294117645
aF18.823529411764707
aF-1.0294117647058805
aF-3.82352941176471
aF1.1700000000000017
aF0.7352941176470589
aF1.147058823529413
aF1.4299999999999997
aF2.0
aF2.5588235294117645
aF1.0400000000000063
aF0.6764705882352899
aF0.6700000000000017
aF-2.4411764705882355
aF0.382352941176471
aF-2.058823529411761
aF-2.0600000000000023
aF-1.9705882352941195
aF-0.4411764705882355
aF0.3235294117647056
aF0.7058823529411766
aF-1.3235294117647065
aF26.324324324324323
aF55.891891891891895
aF47.1
aF5.054054054054054
aF14.675675675675675
aF34.44
aF14.135135135135135
aF20.64864864864865
aF68.46
aF71.83783783783784
aF71.84
aF13.162162162162161
aF25.37837837837838
aF38.54054054054054
aF38.54
aF16.37837837837838
aF13.891891891891891
aF6.54054054054054
aF3.324324324324324
aF18.0
aF22.405405405405407
aF55.21621621621622
aF40.58
aF6.702702702702703
aF20.405405405405407
aF32.85
aF12.297297297297296
aF17.35135135135135
aF70.87
aF63.810810810810814
aF63.81
aF10.08108108108108
aF19.89189189189189
aF29.972972972972972
aF29.97
aF12.486486486486486
aF12.405405405405405
aF6.5675675675675675
aF2.5405405405405403
aF17.594594594594593
aF3.9189189189189158
aF0.6756756756756772
aF6.520000000000003
aF-1.6486486486486482
aF-5.729729729729732
aF1.5899999999999963
aF1.8378378378378386
aF3.2972972972972983
aF-2.410000000000011
aF8.027027027027025
aF8.030000000000001
aF3.0810810810810807
aF5.486486486486488
aF8.567567567567568
aF8.57
aF3.891891891891893
aF1.486486486486486
aF-0.027027027027027195
aF0.7837837837837838
aF0.40540540540540704
aa(lp20
F27.37142857142857
aF65.2
aF41.98
aF8.285714285714286
aF23.257142857142856
aF35.63
aF15.571428571428571
aF21.942857142857143
aF70.96
aF78.6
aF78.6
aF12.6
aF21.257142857142856
aF33.857142857142854
aF33.86
aF12.428571428571429
aF9.0
aF9.4
aF2.942857142857143
aF18.62857142857143
aF26.542857142857144
aF57.6
aF46.08
aF5.628571428571429
aF16.97142857142857
aF33.16
aF16.257142857142856
aF22.771428571428572
aF71.39
aF74.97142857142858
aF74.97
aF13.4
aF28.885714285714286
aF42.285714285714285
aF42.29
aF13.428571428571429
aF16.714285714285715
aF4.514285714285714
aF3.4
aF18.4
aF0.8285714285714256
aF7.600000000000001
aF-4.100000000000001
aF2.6571428571428575
aF6.285714285714285
aF2.470000000000006
aF-0.685714285714285
aF-0.8285714285714292
aF-0.4300000000000068
aF3.6285714285714192
aF3.6299999999999955
aF-0.8000000000000007
aF-7.62857142857143
aF-8.42857142857143
aF-8.43
aF-1.0
aF-7.714285714285715
aF4.885714285714286
aF-0.45714285714285685
aF0.2285714285714313
aF29.272727272727273
aF62.18181818181818
aF47.08
aF5.909090909090909
aF15.454545454545455
aF38.24
aF15.212121212121213
aF20.87878787878788
aF72.86
aF79.66666666666667
aF79.67
aF12.757575757575758
aF25.727272727272727
aF38.484848484848484
aF38.48
aF16.515151515151516
aF11.606060606060606
aF7.757575757575758
aF4.666666666666667
aF16.78787878787879
aF24.484848484848484
aF62.18181818181818
aF39.38
aF6.696969696969697
aF19.696969696969695
aF34.0
aF12.636363636363637
aF18.242424242424242
aF69.27
aF68.3030303030303
aF68.3
aF14.848484848484848
aF23.09090909090909
aF37.93939393939394
aF37.94
aF11.636363636363637
aF15.121212121212121
aF5.606060606060606
aF3.515151515151515
aF18.575757575757574
aF4.787878787878789
aF0.0
aF7.699999999999996
aF-0.7878787878787881
aF-4.24242424242424
aF4.240000000000002
aF2.575757575757576
aF2.6363636363636367
aF3.5900000000000034
aF11.363636363636374
aF11.370000000000005
aF-2.09090909090909
aF2.6363636363636367
aF0.5454545454545467
aF0.5399999999999991
aF4.878787878787879
aF-3.5151515151515156
aF2.1515151515151514
aF1.1515151515151518
aF-1.7878787878787854
aa(lp21
F27.352941176470587
aF60.23529411764706
aF45.41
aF4.705882352941177
aF14.647058823529411
aF32.13
aF15.705882352941176
aF23.323529411764707
aF67.34
aF75.11764705882354
aF75.12
aF13.0
aF25.529411764705884
aF38.529411764705884
aF38.53
aF14.294117647058824
aF12.294117647058824
aF8.764705882352942
aF3.5
aF13.852941176470589
aF25.58823529411765
aF59.76470588235294
aF42.81
aF6.147058823529412
aF18.735294117647058
aF32.81
aF8.147058823529411
aF12.764705882352942
aF63.82
aF65.47058823529412
aF65.47
aF10.705882352941176
aF23.647058823529413
aF34.35294117647059
aF34.35
aF13.794117647058824
aF15.205882352941176
aF6.088235294117647
aF3.323529411764706
aF18.529411764705884
aF1.7647058823529385
aF0.470588235294116
aF2.5999999999999943
aF-1.4411764705882355
aF-4.088235294117647
aF-0.6799999999999997
aF7.5588235294117645
aF10.558823529411764
aF3.520000000000003
aF9.64705882352942
aF9.650000000000006
aF2.2941176470588243
aF1.882352941176471
aF4.176470588235297
aF4.18
aF0.5
aF-2.9117647058823515
aF2.6764705882352953
aF0.17647058823529393
aF-4.676470588235295
aF24.771428571428572
aF55.91428571428571
aF44.3
aF5.3428571428571425
aF16.8
aF31.8
aF15.6
aF21.571428571428573
aF72.32
aF70.48571428571428
aF70.49
aF10.028571428571428
aF23.4
aF33.42857142857143
aF33.43
aF14.085714285714285
aF10.885714285714286
aF7.085714285714285
aF4.628571428571429
aF18.6
aF21.057142857142857
aF52.82857142857143
aF39.86
aF5.257142857142857
aF14.857142857142858
aF35.38
aF13.885714285714286
aF19.428571428571427
aF71.47
aF61.25714285714286
aF61.26
aF10.885714285714286
aF24.114285714285714
aF35.0
aF35.0
aF10.8
aF15.685714285714285
aF5.2
aF2.6
aF18.885714285714286
aF3.7142857142857153
aF3.085714285714282
aF4.439999999999998
aF0.08571428571428541
aF1.942857142857143
aF-3.580000000000002
aF1.7142857142857135
aF2.142857142857146
aF0.8499999999999943
aF9.22857142857142
aF9.229999999999997
aF-0.8571428571428577
aF-0.7142857142857153
aF-1.5714285714285694
aF-1.5700000000000003
aF3.2857142857142847
aF-4.799999999999999
aF1.8857142857142852
aF2.028571428571429
aF-0.2857142857142847
aa(lp22
F25.945945945945947
aF60.513513513513516
aF42.88
aF5.54054054054054
aF16.675675675675677
aF33.23
aF18.594594594594593
aF26.56756756756757
aF69.99
aF76.02702702702703
aF76.03
aF15.35135135135135
aF24.864864864864863
aF40.21621621621622
aF40.22
aF12.45945945945946
aF13.486486486486486
aF6.5675675675675675
aF4.108108108108108
aF21.135135135135137
aF24.37837837837838
aF57.67567567567568
aF42.27
aF4.864864864864865
aF14.945945945945946
aF32.55
aF16.81081081081081
aF24.89189189189189
aF67.54
aF70.43243243243244
aF70.43
aF13.18918918918919
aF23.324324324324323
aF36.513513513513516
aF36.51
aF11.621621621621621
aF14.297297297297296
aF5.891891891891892
aF4.162162162162162
aF20.45945945945946
aF1.5675675675675684
aF2.8378378378378386
aF0.6099999999999994
aF0.6756756756756754
aF1.7297297297297316
aF0.6799999999999997
aF1.7837837837837824
aF1.6756756756756772
aF2.4499999999999886
aF5.5945945945945965
aF5.599999999999994
aF2.1621621621621614
aF1.5405405405405403
aF3.7027027027027017
aF3.710000000000001
aF0.8378378378378386
aF-0.8108108108108105
aF0.6756756756756754
aF-0.05405405405405439
aF0.6756756756756772
aF24.789473684210527
aF57.63157894736842
aF43.01
aF6.7631578947368425
aF20.05263157894737
aF33.73
aF16.07894736842105
aF22.842105263157894
aF70.39
aF72.42105263157895
aF72.42
aF15.394736842105264
aF23.210526315789473
aF38.60526315789474
aF38.61
aF15.5
aF11.868421052631579
aF5.605263157894737
aF4.078947368421052
aF18.05263157894737
aF22.0
aF52.81578947368421
aF41.65
aF5.5
aF17.0
aF32.35
aF14.026315789473685
aF20.657894736842106
aF67.9
aF63.526315789473685
aF63.53
aF10.973684210526315
aF21.236842105263158
aF32.21052631578947
aF32.21
aF11.5
aF13.394736842105264
aF6.131578947368421
aF2.973684210526316
aF21.0
aF2.7894736842105274
aF4.815789473684205
aF1.3599999999999994
aF1.2631578947368425
aF3.05263157894737
aF1.3799999999999955
aF2.0526315789473664
aF2.1842105263157876
aF2.489999999999995
aF8.89473684210526
aF8.89
aF4.421052631578949
aF1.973684210526315
aF6.394736842105267
aF6.399999999999999
aF4.0
aF-1.526315789473685
aF-0.5263157894736841
aF1.1052631578947363
aF-2.94736842105263
aa(lp23
F27.235294117647058
aF61.88235294117647
aF44.01
aF7.588235294117647
aF20.61764705882353
aF36.8
aF15.205882352941176
aF21.0
aF72.41
aF77.26470588235294
aF77.26
aF12.970588235294118
aF22.323529411764707
aF35.294117647058826
aF35.29
aF15.352941176470589
aF12.705882352941176
aF10.911764705882353
aF4.705882352941177
aF19.294117647058822
aF22.794117647058822
aF55.588235294117645
aF41.01
aF5.4411764705882355
aF17.176470588235293
aF31.68
aF15.205882352941176
aF21.647058823529413
aF70.24
aF66.23529411764706
aF66.24
aF13.764705882352942
aF24.41176470588235
aF38.1764705882353
aF38.18
aF11.235294117647058
aF19.38235294117647
aF6.0
aF3.088235294117647
aF18.852941176470587
aF4.4411764705882355
aF6.294117647058826
aF3.0
aF2.1470588235294112
aF3.4411764705882355
aF5.119999999999997
aF0.0
aF-0.647058823529413
aF2.1700000000000017
aF11.029411764705884
aF11.02000000000001
aF-0.7941176470588243
aF-2.088235294117645
aF-2.882352941176471
aF-2.8900000000000006
aF4.117647058823531
aF-6.676470588235295
aF4.911764705882353
aF1.6176470588235294
aF0.4411764705882355
aF26.59375
aF58.6875
aF45.31
aF6.75
aF19.71875
aF34.23
aF13.5
aF20.4375
aF66.06
aF73.4375
aF73.44
aF13.125
aF23.6875
aF36.8125
aF36.81
aF14.15625
aF15.0
aF9.40625
aF4.71875
aF17.625
aF23.3125
aF55.25
aF42.19
aF4.625
aF15.71875
aF29.42
aF13.28125
aF19.5625
aF67.89
aF64.53125
aF64.53
aF11.90625
aF22.84375
aF34.75
aF34.75
aF12.0
aF17.21875
aF8.21875
aF3.125
aF18.34375
aF3.28125
aF3.4375
aF3.1200000000000045
aF2.125
aF4.0
aF4.809999999999995
aF0.21875
aF0.875
aF-1.8299999999999983
aF8.90625
aF8.909999999999997
aF1.21875
aF0.84375
aF2.0625
aF2.0600000000000023
aF2.15625
aF-2.21875
aF1.1875
aF1.59375
aF-0.71875
aa(lp24
F26.333333333333332
aF57.333333333333336
aF45.93
aF5.916666666666667
aF16.305555555555557
aF36.29
aF14.222222222222221
aF21.63888888888889
aF65.73
aF72.80555555555556
aF72.81
aF13.25
aF26.47222222222222
aF39.72222222222222
aF39.72
aF14.11111111111111
aF16.416666666666668
aF8.0
aF5.277777777777778
aF18.61111111111111
aF22.72222222222222
aF59.138888888888886
aF38.42
aF6.666666666666667
aF21.166666666666668
aF31.5
aF13.583333333333334
aF20.38888888888889
aF66.62
aF65.69444444444444
aF65.69
aF13.38888888888889
aF21.583333333333332
aF34.97222222222222
aF34.97
aF13.11111111111111
aF15.194444444444445
aF7.888888888888889
aF3.138888888888889
aF19.083333333333332
aF3.6111111111111107
aF-1.80555555555555
aF7.509999999999998
aF-0.75
aF-4.861111111111111
aF4.789999999999999
aF0.6388888888888875
aF1.25
aF-0.8900000000000006
aF7.111111111111114
aF7.1200000000000045
aF-0.13888888888888928
aF4.888888888888889
aF4.75
aF4.75
aF1.0
aF1.2222222222222232
aF0.11111111111111072
aF2.138888888888889
aF-0.47222222222222143
aF25.424242424242426
aF56.39393939393939
aF45.08
aF8.303030303030303
aF23.757575757575758
aF34.95
aF14.696969696969697
aF20.575757575757574
aF71.43
aF73.84848484848484
aF73.85
aF9.909090909090908
aF25.515151515151516
aF35.42424242424242
aF35.42
aF12.515151515151516
aF12.666666666666666
aF6.484848484848484
aF2.5454545454545454
aF20.12121212121212
aF23.333333333333332
aF55.60606060606061
aF41.96
aF6.878787878787879
aF19.03030303030303
aF36.15
aF14.424242424242424
aF20.666666666666668
aF69.79
aF67.96969696969697
aF67.97
aF9.878787878787879
aF24.12121212121212
aF34.0
aF34.0
aF11.515151515151516
aF13.333333333333334
aF5.7272727272727275
aF2.9393939393939394
aF18.727272727272727
aF2.0909090909090935
aF0.7878787878787818
aF3.1199999999999974
aF1.4242424242424239
aF4.727272727272727
aF-1.1999999999999957
aF0.2727272727272734
aF-0.09090909090909349
aF1.6400000000000006
aF5.878787878787875
aF5.8799999999999955
aF0.030303030303029388
aF1.3939393939393945
aF1.424242424242422
aF1.4200000000000017
aF1.0
aF-0.6666666666666679
aF0.7575757575757569
aF-0.39393939393939403
aF1.3939393939393945
aa(lp25
F23.6
aF53.82857142857143
aF43.84
aF4.742857142857143
aF14.971428571428572
aF31.68
aF18.257142857142856
aF26.571428571428573
aF68.71
aF70.2
aF70.2
aF12.371428571428572
aF24.514285714285716
aF36.885714285714286
aF36.89
aF12.085714285714285
aF13.914285714285715
aF6.828571428571428
aF4.0285714285714285
aF18.142857142857142
aF22.8
aF56.885714285714286
aF40.08
aF5.6
aF17.485714285714284
aF32.03
aF13.571428571428571
aF19.65714285714286
aF69.04
aF64.77142857142857
aF64.77
aF12.428571428571429
aF21.742857142857144
aF34.17142857142857
aF34.17
aF11.057142857142857
aF13.685714285714285
aF6.942857142857143
aF3.7714285714285714
aF22.2
aF0.8000000000000007
aF-3.057142857142857
aF3.760000000000005
aF-0.8571428571428568
aF-2.5142857142857125
aF-0.3500000000000014
aF4.685714285714285
aF6.914285714285715
aF-0.3300000000000125
aF5.428571428571431
aF5.430000000000007
aF-0.05714285714285694
aF2.7714285714285722
aF2.7142857142857153
aF2.719999999999999
aF1.0285714285714285
aF0.22857142857142954
aF-0.11428571428571477
aF0.2571428571428571
aF-4.057142857142857
aF29.771428571428572
aF57.74285714285714
aF51.56
aF6.9714285714285715
aF17.82857142857143
aF39.1
aF14.4
aF21.285714285714285
aF67.65
aF80.91428571428571
aF80.91
aF11.914285714285715
aF26.285714285714285
aF38.2
aF38.2
aF19.228571428571428
aF15.2
aF9.6
aF6.314285714285714
aF14.714285714285714
aF24.457142857142856
aF61.457142857142856
aF39.8
aF7.457142857142857
aF24.685714285714287
aF30.21
aF10.028571428571428
aF15.742857142857142
aF63.7
aF66.4
aF66.4
aF13.714285714285714
aF20.228571428571428
aF33.94285714285714
aF33.94
aF15.514285714285714
aF15.628571428571428
aF8.457142857142857
aF2.2857142857142856
aF17.942857142857143
aF5.314285714285717
aF-3.7142857142857153
aF11.760000000000005
aF-0.48571428571428577
aF-6.857142857142858
aF8.89
aF4.371428571428572
aF5.542857142857143
aF3.950000000000003
aF14.514285714285705
aF14.509999999999991
aF-1.799999999999999
aF6.057142857142857
aF4.25714285714286
aF4.260000000000005
aF3.7142857142857135
aF-0.4285714285714288
aF1.1428571428571423
aF4.0285714285714285
aF-3.2285714285714295
aa(lp26
F27.6
aF57.94285714285714
aF47.63
aF6.514285714285714
aF17.4
aF37.44
aF15.514285714285714
aF20.485714285714284
aF75.73
aF77.22857142857143
aF77.23
aF11.285714285714286
aF24.17142857142857
aF35.457142857142856
aF35.46
aF14.285714285714286
aF12.028571428571428
aF5.6571428571428575
aF2.4571428571428573
aF16.942857142857143
aF24.742857142857144
aF56.94285714285714
aF43.45
aF5.571428571428571
aF17.65714285714286
aF31.55
aF13.142857142857142
aF18.942857142857143
aF69.38
aF68.2
aF68.2
aF10.885714285714286
aF21.2
aF32.08571428571429
aF32.09
aF12.428571428571429
aF12.771428571428572
aF5.514285714285714
aF3.7714285714285714
aF17.37142857142857
aF2.8571428571428577
aF1.0
aF4.18
aF0.9428571428571431
aF-0.2571428571428598
aF5.889999999999997
aF2.371428571428572
aF1.542857142857141
aF6.3500000000000085
aF9.028571428571425
aF9.030000000000001
aF0.40000000000000036
aF2.9714285714285715
aF3.3714285714285666
aF3.3699999999999974
aF1.8571428571428577
aF-0.7428571428571438
aF0.14285714285714324
aF-1.314285714285714
aF-0.42857142857142705
aF26.545454545454547
aF59.39393939393939
aF44.69
aF7.9393939393939394
aF23.545454545454547
aF33.72
aF14.878787878787879
aF21.21212121212121
aF70.14
aF75.9090909090909
aF75.91
aF14.484848484848484
aF22.393939393939394
aF36.878787878787875
aF36.88
aF15.484848484848484
aF13.727272727272727
aF7.818181818181818
aF4.090909090909091
aF20.09090909090909
aF23.818181818181817
aF55.54545454545455
aF42.88
aF6.212121212121212
aF17.87878787878788
aF34.75
aF15.969696969696969
aF22.757575757575758
aF70.17
aF69.81818181818181
aF69.82
aF13.090909090909092
aF21.939393939393938
aF35.03030303030303
aF35.03
aF13.454545454545455
aF15.303030303030303
aF6.575757575757576
aF2.121212121212121
aF19.545454545454547
aF2.72727272727273
aF3.848484848484844
aF1.8099999999999952
aF1.7272727272727275
aF5.666666666666668
aF-1.0300000000000011
aF-1.09090909090909
aF-1.5454545454545467
aF-0.030000000000001137
aF6.0909090909090935
aF6.090000000000003
aF1.3939393939393927
aF0.4545454545454568
aF1.8484848484848442
aF1.8500000000000014
aF2.0303030303030294
aF-1.5757575757575761
aF1.2424242424242422
aF1.9696969696969697
aF0.5454545454545432
aa(lp27
F26.285714285714285
aF58.65714285714286
aF44.81
aF5.885714285714286
aF18.285714285714285
aF32.19
aF18.0
aF25.02857142857143
aF71.92
aF76.45714285714286
aF76.46
aF13.628571428571428
aF24.771428571428572
aF38.4
aF38.4
aF13.17142857142857
aF13.857142857142858
aF6.742857142857143
aF4.828571428571428
aF18.057142857142857
aF26.714285714285715
aF59.0
aF45.28
aF5.428571428571429
aF15.885714285714286
aF34.17
aF12.685714285714285
aF18.885714285714286
aF67.17
aF71.54285714285714
aF71.54
aF10.885714285714286
aF22.65714285714286
aF33.542857142857144
aF33.54
aF12.885714285714286
aF13.17142857142857
aF6.885714285714286
aF3.342857142857143
aF20.514285714285716
aF-0.4285714285714306
aF-0.34285714285714164
aF-0.46999999999999886
aF0.4571428571428573
aF2.3999999999999986
aF-1.980000000000004
aF5.314285714285715
aF6.142857142857142
aF4.75
aF4.914285714285711
aF4.9199999999999875
aF2.742857142857142
aF2.114285714285714
aF4.857142857142854
aF4.859999999999999
aF0.2857142857142847
aF0.6857142857142868
aF-0.14285714285714324
aF1.4857142857142853
aF-2.457142857142859
aF23.794117647058822
aF53.26470588235294
aF44.67
aF5.323529411764706
aF15.470588235294118
aF34.41
aF15.794117647058824
aF22.794117647058822
aF69.29
aF68.70588235294117
aF68.71
aF12.294117647058824
aF25.029411764705884
aF37.3235294117647
aF37.32
aF15.764705882352942
aF12.382352941176471
aF5.205882352941177
aF4.088235294117647
aF17.470588235294116
aF22.176470588235293
aF55.38235294117647
aF40.04
aF5.0588235294117645
aF16.11764705882353
aF31.39
aF12.382352941176471
aF18.735294117647058
aF66.09
aF61.794117647058826
aF61.79
aF11.323529411764707
aF21.0
aF32.3235294117647
aF32.32
aF11.147058823529411
aF10.794117647058824
aF5.470588235294118
aF3.911764705882353
aF19.5
aF1.617647058823529
aF-2.117647058823529
aF4.630000000000003
aF0.2647058823529411
aF-0.6470588235294112
aF3.019999999999996
aF3.4117647058823533
aF4.0588235294117645
aF3.200000000000003
aF6.911764705882348
aF6.919999999999995
aF0.9705882352941178
aF4.029411764705884
aF5.0
aF5.0
aF4.617647058823531
aF1.5882352941176467
aF-0.2647058823529411
aF0.17647058823529393
aF-2.029411764705884
aa(lp28
F22.466666666666665
aF50.733333333333334
aF44.28
aF6.833333333333333
aF18.133333333333333
aF37.68
aF15.833333333333334
aF23.266666666666666
aF68.05
aF67.6
aF67.6
aF8.933333333333334
aF23.866666666666667
aF32.8
aF32.8
aF13.8
aF15.333333333333334
aF6.733333333333333
aF3.066666666666667
aF19.066666666666666
aF22.366666666666667
aF53.7
aF41.65
aF6.6
aF21.4
aF30.84
aF14.4
aF21.566666666666666
aF66.77
aF65.73333333333333
aF65.73
aF11.366666666666667
aF23.666666666666668
aF35.03333333333333
aF35.03
aF12.866666666666667
aF15.266666666666667
aF7.166666666666667
aF2.8
aF20.066666666666666
aF0.09999999999999787
aF-2.9666666666666686
aF2.6300000000000026
aF0.2333333333333334
aF-3.2666666666666657
aF6.84
aF1.4333333333333336
aF1.6999999999999993
aF1.2800000000000011
aF1.86666666666666
aF1.8699999999999903
aF-2.4333333333333336
aF0.1999999999999993
aF-2.2333333333333343
aF-2.230000000000004
aF0.9333333333333336
aF0.06666666666666643
aF-0.43333333333333357
aF0.26666666666666705
aF-1.0
aF26.56756756756757
aF54.027027027027025
aF49.17
aF7.45945945945946
aF19.135135135135137
aF38.98
aF13.45945945945946
aF19.35135135135135
aF69.55
aF74.05405405405405
aF74.05
aF9.108108108108109
aF24.243243243243242
aF33.351351351351354
aF33.35
aF14.72972972972973
aF11.432432432432432
aF7.081081081081081
aF4.243243243243243
aF15.27027027027027
aF22.324324324324323
aF54.45945945945946
aF40.99
aF6.621621621621622
aF19.64864864864865
aF33.7
aF10.18918918918919
aF14.35135135135135
aF71.0
aF61.45945945945946
aF61.46
aF10.08108108108108
aF21.64864864864865
aF31.72972972972973
aF31.73
aF12.45945945945946
aF14.297297297297296
aF5.378378378378378
aF2.027027027027027
aF18.18918918918919
aF4.243243243243246
aF-0.4324324324324351
aF8.18
aF0.8378378378378377
aF-0.5135135135135123
aF5.279999999999994
aF3.27027027027027
aF5.0
aF-1.4500000000000028
aF12.59459459459459
aF12.589999999999996
aF-0.9729729729729719
aF2.594594594594593
aF1.6216216216216246
aF1.620000000000001
aF2.27027027027027
aF-2.864864864864865
aF1.7027027027027026
aF2.216216216216216
aF-2.9189189189189193
aa(lp29
F26.852941176470587
aF55.705882352941174
aF48.2
aF9.588235294117647
aF22.323529411764707
aF42.95
aF11.558823529411764
aF15.823529411764707
aF73.05
aF76.3529411764706
aF76.35
aF10.382352941176471
aF23.41176470588235
aF33.794117647058826
aF33.79
aF15.970588235294118
aF12.176470588235293
aF7.147058823529412
aF3.588235294117647
aF17.58823529411765
aF21.91176470588235
aF52.26470588235294
aF41.92
aF5.794117647058823
aF17.029411764705884
aF34.02
aF13.735294117647058
aF19.352941176470587
aF70.97
aF64.47058823529412
aF64.47
aF9.852941176470589
aF20.794117647058822
aF30.647058823529413
aF30.65
aF11.5
aF13.617647058823529
aF6.382352941176471
aF2.8529411764705883
aF16.5
aF4.9411764705882355
aF3.441176470588232
aF6.280000000000001
aF3.7941176470588234
aF5.2941176470588225
aF8.93
aF-2.1764705882352935
aF-3.5294117647058805
aF2.0799999999999983
aF11.882352941176478
aF11.879999999999995
aF0.5294117647058822
aF2.617647058823529
aF3.147058823529413
aF3.1400000000000006
aF4.470588235294118
aF-1.4411764705882355
aF0.7647058823529411
aF0.7352941176470589
aF1.0882352941176485
aF24.314285714285713
aF55.48571428571429
aF43.82
aF5.828571428571428
aF17.285714285714285
aF33.72
aF10.485714285714286
aF15.228571428571428
aF68.86
aF64.94285714285714
aF64.94
aF10.914285714285715
aF25.685714285714287
aF36.6
aF36.6
aF14.714285714285714
aF10.485714285714286
aF4.6571428571428575
aF2.9714285714285715
aF14.885714285714286
aF20.771428571428572
aF54.2
aF38.32
aF5.0285714285714285
aF17.65714285714286
aF28.48
aF10.2
aF14.6
aF69.86
aF56.77142857142857
aF56.77
aF9.885714285714286
aF22.771428571428572
aF32.65714285714286
aF32.66
aF9.8
aF11.285714285714286
aF5.3428571428571425
aF2.942857142857143
aF16.2
aF3.542857142857141
aF1.2857142857142847
aF5.5
aF0.7999999999999998
aF-0.37142857142857366
aF5.239999999999998
aF0.2857142857142865
aF0.6285714285714281
aF-1.0
aF8.171428571428564
aF8.169999999999995
aF1.0285714285714285
aF2.9142857142857146
aF3.942857142857143
aF3.940000000000005
aF4.914285714285713
aF-0.8000000000000007
aF-0.685714285714285
aF0.02857142857142847
aF-1.3142857142857132
aa(lp30
F26.885714285714286
aF55.08571428571429
aF48.81
aF6.914285714285715
aF16.714285714285715
aF41.37
aF12.428571428571429
aF16.4
aF75.78
aF73.11428571428571
aF73.11
aF10.342857142857143
aF25.02857142857143
aF35.371428571428574
aF35.37
aF16.685714285714287
aF10.228571428571428
aF4.628571428571429
aF3.5142857142857142
aF16.057142857142857
aF21.62857142857143
aF53.34285714285714
aF40.55
aF5.6571428571428575
aF17.571428571428573
aF32.2
aF11.0
aF15.514285714285714
aF70.9
aF59.91428571428571
aF59.91
aF9.2
aF20.228571428571428
aF29.428571428571427
aF29.43
aF11.142857142857142
aF11.2
aF4.828571428571428
aF3.1142857142857143
aF15.742857142857142
aF5.257142857142856
aF1.7428571428571473
aF8.260000000000005
aF1.2571428571428571
aF-0.8571428571428577
aF9.169999999999995
aF1.4285714285714288
aF0.8857142857142843
aF4.8799999999999955
aF13.200000000000003
aF13.200000000000003
aF1.1428571428571441
aF4.800000000000001
aF5.942857142857147
aF5.939999999999998
aF5.5428571428571445
aF-0.9714285714285715
aF-0.1999999999999993
aF0.3999999999999999
aF0.31428571428571495
aF23.91176470588235
aF54.294117647058826
aF44.04
aF6.176470588235294
aF18.41176470588235
aF33.55
aF17.352941176470587
aF26.235294117647058
aF66.14
aF71.3529411764706
aF71.35
aF11.764705882352942
aF25.058823529411764
aF36.8235294117647
aF36.82
aF12.264705882352942
aF12.264705882352942
aF6.5588235294117645
aF3.323529411764706
aF18.205882352941178
aF22.38235294117647
aF54.529411764705884
aF41.05
aF6.0588235294117645
aF18.147058823529413
aF33.39
aF13.647058823529411
aF19.41176470588235
aF70.3
aF64.47058823529412
aF64.47
aF10.5
aF23.61764705882353
aF34.11764705882353
aF34.12
aF12.088235294117647
aF13.911764705882353
aF6.382352941176471
aF4.352941176470588
aF21.941176470588236
aF1.5294117647058805
aF-0.235294117647058
aF2.990000000000002
aF0.11764705882352988
aF0.26470588235293846
aF0.1599999999999966
aF3.7058823529411757
aF6.8235294117647065
aF-4.159999999999997
aF6.882352941176478
aF6.8799999999999955
aF1.264705882352942
aF1.4411764705882355
aF2.705882352941174
aF2.700000000000003
aF0.17647058823529527
aF-1.6470588235294112
aF0.1764705882352935
aF-1.0294117647058818
aF-3.735294117647058
aa(lp31
F23.571428571428573
aF53.51428571428571
aF44.05
aF5.8
aF16.571428571428573
aF35.0
aF15.857142857142858
aF23.714285714285715
aF66.87
aF68.8
aF68.8
aF11.485714285714286
aF24.02857142857143
aF35.51428571428571
aF35.51
aF13.4
aF11.885714285714286
aF6.914285714285715
aF2.1142857142857143
aF17.742857142857144
aF21.857142857142858
aF52.457142857142856
aF41.67
aF4.828571428571428
aF15.771428571428572
aF30.62
aF12.428571428571429
aF18.457142857142856
aF67.34
aF60.97142857142857
aF60.97
aF9.857142857142858
aF22.714285714285715
aF32.57142857142857
aF32.57
aF9.342857142857143
aF14.028571428571428
aF5.171428571428572
aF3.8857142857142857
aF19.457142857142856
aF1.7142857142857153
aF1.057142857142857
aF2.3799999999999955
aF0.9714285714285715
aF0.8000000000000007
aF4.379999999999999
aF3.428571428571429
aF5.25714285714286
aF-0.46999999999999886
aF7.828571428571429
aF7.829999999999998
aF1.6285714285714281
aF1.3142857142857132
aF2.942857142857143
aF2.9399999999999977
aF4.057142857142857
aF-2.1428571428571423
aF1.7428571428571429
aF-1.7714285714285714
aF-1.7142857142857117
aF23.515151515151516
aF53.03030303030303
aF44.34
aF7.454545454545454
aF20.90909090909091
aF35.65
aF12.606060606060606
aF17.21212121212121
aF73.24
aF67.0909090909091
aF67.09
aF9.696969696969697
aF22.303030303030305
aF32.0
aF32.0
aF12.484848484848484
aF8.757575757575758
aF5.666666666666667
aF3.4242424242424243
aF16.272727272727273
aF20.393939393939394
aF48.06060606060606
aF42.43
aF4.181818181818182
aF12.181818181818182
aF34.33
aF11.93939393939394
aF17.333333333333332
aF68.88
aF56.90909090909091
aF56.91
aF7.96969696969697
aF22.393939393939394
aF30.363636363636363
aF30.36
aF9.515151515151516
aF12.0
aF4.484848484848484
aF2.242424242424242
aF17.757575757575758
aF3.121212121212121
aF4.969696969696969
aF1.9100000000000037
aF3.2727272727272725
aF8.727272727272728
aF1.3200000000000003
aF0.6666666666666661
aF-0.1212121212121211
aF4.359999999999999
aF10.181818181818187
aF10.180000000000007
aF1.7272727272727275
aF-0.09090909090908994
aF1.6363636363636367
aF1.6400000000000006
aF2.969696969696969
aF-3.242424242424242
aF1.1818181818181825
aF1.181818181818182
aF-1.4848484848484844
aa(lp32
F24.46875
aF54.1875
aF45.16
aF5.8125
aF17.40625
aF33.39
aF13.46875
aF20.90625
aF64.42
aF68.21875
aF68.22
aF12.6875
aF25.15625
aF37.84375
aF37.84
aF13.9375
aF16.5
aF8.34375
aF6.25
aF17.96875
aF20.625
aF54.71875
aF37.69
aF6.34375
aF19.3125
aF32.85
aF12.78125
aF19.03125
aF67.16
aF60.375
aF60.38
aF12.03125
aF20.59375
aF32.625
aF32.62
aF9.75
aF16.03125
aF7.9375
aF2.4375
aF18.59375
aF3.84375
aF-0.53125
aF7.469999999999999
aF-0.53125
aF-1.90625
aF0.5399999999999991
aF0.6875
aF1.875
aF-2.739999999999995
aF7.84375
aF7.839999999999996
aF0.65625
aF4.5625
aF5.21875
aF5.220000000000006
aF4.1875
aF0.46875
aF0.40625
aF3.8125
aF-0.625
aF26.823529411764707
aF54.588235294117645
aF49.14
aF5.352941176470588
aF15.176470588235293
aF35.27
aF17.88235294117647
aF26.941176470588236
aF66.38
aF76.88235294117646
aF76.88
aF10.529411764705882
aF27.294117647058822
aF37.8235294117647
aF37.82
aF13.411764705882353
aF13.058823529411764
aF6.676470588235294
aF4.176470588235294
aF18.058823529411764
aF24.058823529411764
aF59.0
aF40.78
aF6.352941176470588
aF19.264705882352942
aF32.98
aF12.911764705882353
aF19.91176470588235
aF64.84
aF67.38235294117646
aF67.38
aF11.088235294117647
aF22.264705882352942
aF33.35294117647059
aF33.35
aF12.235294117647058
aF13.0
aF6.588235294117647
aF2.8823529411764706
aF21.294117647058822
aF2.764705882352942
aF-4.411764705882355
aF8.36
aF-1.0
aF-4.0882352941176485
aF2.2900000000000063
aF4.970588235294118
aF7.029411764705884
aF1.539999999999992
aF9.5
aF9.5
aF-0.5588235294117645
aF5.0294117647058805
aF4.470588235294116
aF4.469999999999999
aF1.1764705882352953
aF0.0588235294117645
aF0.08823529411764763
aF1.2941176470588238
aF-3.235294117647058
aa(lp33
F25.61111111111111
aF57.25
aF44.74
aF4.611111111111111
aF14.527777777777779
aF31.74
aF11.25
aF17.36111111111111
aF64.8
aF67.08333333333333
aF67.08
aF15.0
aF23.72222222222222
aF38.72222222222222
aF38.72
aF15.38888888888889
aF12.694444444444445
aF7.833333333333333
aF2.9166666666666665
aF15.555555555555555
aF20.88888888888889
aF51.861111111111114
aF40.28
aF5.444444444444445
aF18.13888888888889
aF30.02
aF10.25
aF15.416666666666666
aF66.49
aF57.47222222222222
aF57.47
aF10.25
aF20.36111111111111
aF30.61111111111111
aF30.61
aF11.166666666666666
aF14.13888888888889
aF6.416666666666667
aF3.5833333333333335
aF17.083333333333332
aF4.722222222222221
aF5.388888888888886
aF4.460000000000001
aF-0.8333333333333339
aF-3.6111111111111107
aF1.7199999999999989
aF1.0
aF1.9444444444444446
aF-1.6899999999999977
aF9.611111111111107
aF9.61
aF4.75
aF3.3611111111111107
aF8.11111111111111
aF8.11
aF4.222222222222223
aF-1.4444444444444446
aF1.416666666666666
aF-0.666666666666667
aF-1.5277777777777768
aF27.583333333333332
aF56.666666666666664
aF48.68
aF7.083333333333333
aF18.38888888888889
aF38.52
aF14.722222222222221
aF20.305555555555557
aF72.5
aF76.97222222222223
aF76.97
aF12.305555555555555
aF26.805555555555557
aF39.111111111111114
aF39.11
aF14.11111111111111
aF13.63888888888889
aF6.583333333333333
aF6.722222222222222
aF17.75
aF22.666666666666668
aF59.333333333333336
aF38.2
aF6.916666666666667
aF20.805555555555557
aF33.24
aF13.36111111111111
aF19.666666666666668
aF67.94
aF65.61111111111111
aF65.61
aF13.055555555555555
aF19.666666666666668
aF32.72222222222222
aF32.72
aF13.083333333333334
aF12.083333333333334
aF6.027777777777778
aF2.361111111111111
aF18.333333333333332
aF4.916666666666664
aF-2.6666666666666714
aF10.479999999999997
aF0.16666666666666607
aF-2.416666666666668
aF5.280000000000001
aF1.3611111111111107
aF0.6388888888888893
aF4.560000000000002
aF11.361111111111114
aF11.36
aF-0.75
aF7.138888888888889
aF6.388888888888893
aF6.390000000000001
aF1.0277777777777768
aF1.5555555555555554
aF0.5555555555555554
aF4.361111111111111
aF-0.5833333333333321
aa(lp34
F27.166666666666668
aF54.47222222222222
aF49.87
aF6.277777777777778
aF16.63888888888889
aF37.73
aF15.86111111111111
aF22.805555555555557
aF69.55
aF76.47222222222223
aF76.47
aF12.194444444444445
aF24.444444444444443
aF36.638888888888886
aF36.64
aF15.444444444444445
aF14.63888888888889
aF9.63888888888889
aF5.444444444444445
aF17.166666666666668
aF21.13888888888889
aF54.638888888888886
aF38.69
aF5.416666666666667
aF16.27777777777778
aF33.28
aF12.722222222222221
aF18.333333333333332
aF69.39
aF60.416666666666664
aF60.42
aF11.777777777777779
aF18.52777777777778
aF30.305555555555557
aF30.31
aF11.11111111111111
aF16.75
aF6.5
aF2.7222222222222223
aF18.61111111111111
aF6.027777777777779
aF-0.1666666666666643
aF11.18
aF0.8611111111111107
aF0.3611111111111107
aF4.449999999999996
aF3.1388888888888893
aF4.472222222222225
aF0.1599999999999966
aF16.055555555555564
aF16.049999999999997
aF0.4166666666666661
aF5.916666666666664
aF6.333333333333329
aF6.330000000000002
aF4.333333333333334
aF-2.1111111111111107
aF3.1388888888888893
aF2.7222222222222223
aF-1.4444444444444429
aF22.236842105263158
aF50.28947368421053
aF44.22
aF6.842105263157895
aF20.026315789473685
aF34.17
aF17.394736842105264
aF23.57894736842105
aF73.77
aF68.71052631578948
aF68.71
aF9.289473684210526
aF23.36842105263158
aF32.6578947368421
aF32.66
aF12.210526315789474
aF12.0
aF7.026315789473684
aF2.263157894736842
aF18.026315789473685
aF21.18421052631579
aF50.94736842105263
aF41.58
aF5.105263157894737
aF16.105263157894736
aF31.7
aF11.947368421052632
aF17.605263157894736
aF67.86
aF59.421052631578945
aF59.42
aF8.81578947368421
aF21.236842105263158
aF30.05263157894737
aF30.05
aF10.710526315789474
aF13.921052631578947
aF5.2631578947368425
aF3.1578947368421053
aF20.5
aF1.0526315789473664
aF-0.6578947368421026
aF2.6400000000000006
aF1.7368421052631575
aF3.9210526315789487
aF2.4700000000000024
aF5.447368421052632
aF5.973684210526315
aF5.909999999999997
aF9.289473684210535
aF9.289999999999992
aF0.47368421052631504
aF2.1315789473684212
aF2.6052631578947327
aF2.609999999999996
aF1.5
aF-1.921052631578947
aF1.7631578947368416
aF-0.8947368421052633
aF-2.473684210526315
aa(lp35
F25.0
aF58.189189189189186
aF42.96
aF7.513513513513513
aF20.513513513513512
aF36.63
aF17.16216216216216
aF23.864864864864863
aF71.91
aF74.67567567567568
aF74.68
aF11.972972972972974
aF25.08108108108108
aF37.054054054054056
aF37.05
aF14.162162162162161
aF12.783783783783784
aF7.513513513513513
aF2.6216216216216215
aF18.81081081081081
aF24.45945945945946
aF58.513513513513516
aF41.8
aF6.0
aF19.216216216216218
aF31.22
aF14.513513513513514
aF20.72972972972973
aF70.01
aF69.43243243243244
aF69.43
aF12.756756756756756
aF25.0
aF37.75675675675676
aF37.76
aF13.91891891891892
aF15.297297297297296
aF5.783783783783784
aF3.5135135135135136
aF20.16216216216216
aF0.5405405405405403
aF-0.3243243243243299
aF1.1600000000000037
aF1.5135135135135132
aF1.2972972972972947
aF5.410000000000004
aF2.6486486486486474
aF3.1351351351351333
aF1.8999999999999915
aF5.243243243243242
aF5.25
aF-0.7837837837837824
aF0.0810810810810807
aF-0.7027027027027017
aF-0.7100000000000009
aF0.2432432432432421
aF-2.5135135135135123
aF1.729729729729729
aF-0.8918918918918921
aF-1.3513513513513509
aF26.783783783783782
aF58.75675675675676
aF45.58
aF5.891891891891892
aF18.405405405405407
aF32.01
aF14.054054054054054
aF20.945945945945947
aF67.1
aF73.51351351351352
aF73.51
aF11.91891891891892
aF24.64864864864865
aF36.567567567567565
aF36.57
aF14.324324324324325
aF13.243243243243244
aF7.837837837837838
aF3.675675675675676
aF19.81081081081081
aF21.72972972972973
aF54.891891891891895
aF39.59
aF6.216216216216216
aF20.91891891891892
aF29.72
aF15.54054054054054
aF22.35135135135135
aF69.53
aF65.21621621621621
aF65.22
aF11.756756756756756
aF23.675675675675677
aF35.432432432432435
aF35.43
aF11.378378378378379
aF16.18918918918919
aF6.081081081081081
aF4.297297297297297
aF19.027027027027028
aF5.054054054054053
aF3.864864864864863
aF5.989999999999995
aF-0.3243243243243237
aF-2.5135135135135123
aF2.289999999999999
aF-1.486486486486486
aF-1.4054054054054035
aF-2.430000000000007
aF8.297297297297305
aF8.290000000000006
aF0.16216216216216317
aF0.9729729729729719
aF1.1351351351351298
aF1.1400000000000006
aF2.9459459459459456
aF-2.9459459459459456
aF1.756756756756757
aF-0.6216216216216215
aF0.7837837837837824
aa(lp36
F28.47222222222222
aF58.888888888888886
aF48.35
aF8.11111111111111
aF19.444444444444443
aF41.71
aF18.055555555555557
aF22.86111111111111
aF78.98
aF83.11111111111111
aF83.11
aF10.194444444444445
aF26.805555555555557
aF37.0
aF37.0
aF15.75
aF11.583333333333334
aF8.527777777777779
aF3.5
aF17.25
aF23.22222222222222
aF56.916666666666664
aF40.8
aF6.111111111111111
aF18.36111111111111
aF33.28
aF13.88888888888889
aF20.36111111111111
aF68.21
aF66.44444444444444
aF66.44
aF10.333333333333334
aF22.47222222222222
aF32.80555555555556
aF32.81
aF12.36111111111111
aF15.694444444444445
aF6.027777777777778
aF2.9166666666666665
aF18.555555555555557
aF5.25
aF1.9722222222222214
aF7.550000000000004
aF2.0
aF1.0833333333333321
aF8.43
aF4.166666666666668
aF2.5
aF10.77000000000001
aF16.66666666666667
aF16.67
aF-0.13888888888888928
aF4.333333333333336
aF4.194444444444443
aF4.189999999999998
aF3.3888888888888893
aF-4.111111111111111
aF2.500000000000001
aF0.5833333333333335
aF-1.3055555555555571
aF26.513513513513512
aF58.972972972972975
aF44.96
aF6.837837837837838
aF19.0
aF35.99
aF19.83783783783784
aF29.675675675675677
aF66.85
aF79.70270270270271
aF79.7
aF15.108108108108109
aF23.72972972972973
aF38.83783783783784
aF38.84
aF14.621621621621621
aF14.297297297297296
aF7.405405405405405
aF5.054054054054054
aF22.37837837837838
aF23.054054054054053
aF55.054054054054056
aF41.88
aF5.648648648648648
aF16.62162162162162
aF33.98
aF18.08108108108108
aF25.81081081081081
aF70.05
aF69.83783783783784
aF69.84
aF12.18918918918919
aF22.324324324324323
aF34.513513513513516
aF34.51
aF11.891891891891891
aF16.864864864864863
aF6.918918918918919
aF3.3513513513513513
aF24.16216216216216
aF3.4594594594594597
aF3.9189189189189193
aF3.0799999999999983
aF1.1891891891891895
aF2.378378378378379
aF2.010000000000005
aF1.756756756756758
aF3.8648648648648667
aF-3.200000000000003
aF9.86486486486487
aF9.86
aF2.9189189189189193
aF1.405405405405407
aF4.324324324324323
aF4.330000000000005
aF2.72972972972973
aF-2.5675675675675667
aF0.48648648648648596
aF1.702702702702703
aF-1.7837837837837824
aa(lp37
F21.34285714285714
aF49.74285714285714
aF42.91
aF6.6571428571428575
aF18.82857142857143
aF35.36
aF13.971428571428572
aF18.428571428571427
aF75.81
aF63.31428571428572
aF63.31
aF9.514285714285714
aF22.771428571428572
aF32.285714285714285
aF32.29
aF10.485714285714286
aF10.628571428571428
aF5.6571428571428575
aF2.0
aF15.885714285714286
aF19.8
aF48.714285714285715
aF40.65
aF5.828571428571428
aF17.514285714285716
aF33.28
aF9.685714285714285
aF14.028571428571428
aF69.04
aF55.114285714285714
aF55.11
aF8.342857142857143
aF21.428571428571427
aF29.771428571428572
aF29.77
aF8.942857142857143
aF12.142857142857142
aF4.6571428571428575
aF1.9714285714285715
aF18.457142857142856
aF1.542857142857141
aF1.028571428571425
aF2.259999999999998
aF0.8285714285714292
aF1.3142857142857132
aF2.0799999999999983
aF4.2857142857142865
aF4.399999999999999
aF6.769999999999996
aF8.200000000000003
aF8.200000000000003
aF1.1714285714285708
aF1.3428571428571452
aF2.5142857142857125
aF2.5199999999999996
aF1.5428571428571427
aF-1.5142857142857142
aF1.0
aF0.02857142857142847
aF-2.5714285714285694
aF28.694444444444443
aF58.638888888888886
aF48.93
aF7.277777777777778
aF18.0
aF40.43
aF16.916666666666668
aF24.194444444444443
aF69.92
aF81.58333333333333
aF81.58
aF13.0
aF27.47222222222222
aF40.47222222222222
aF40.47
aF16.916666666666668
aF13.055555555555555
aF8.36111111111111
aF6.444444444444445
aF18.27777777777778
aF22.52777777777778
aF59.5
aF37.86
aF6.361111111111111
aF19.194444444444443
aF33.14
aF12.805555555555555
aF18.666666666666668
aF68.6
aF64.22222222222223
aF64.22
aF12.777777777777779
aF20.86111111111111
aF33.638888888888886
aF33.64
aF12.416666666666666
aF13.944444444444445
aF6.5
aF3.6944444444444446
aF19.97222222222222
aF6.166666666666664
aF-0.8611111111111143
aF11.07
aF0.916666666666667
aF-1.1944444444444429
aF7.289999999999999
aF4.1111111111111125
aF5.527777777777775
aF1.3200000000000074
aF17.3611111111111
aF17.36
aF0.22222222222222143
aF6.611111111111111
aF6.833333333333336
aF6.829999999999998
aF4.500000000000002
aF-0.8888888888888893
aF1.8611111111111107
aF2.75
aF-1.6944444444444429
aa(lp38
F27.88888888888889
aF61.44444444444444
aF45.39
aF5.305555555555555
aF15.777777777777779
aF33.63
aF18.11111111111111
aF25.13888888888889
aF72.04
aF79.19444444444444
aF79.19
aF13.222222222222221
aF24.666666666666668
aF37.888888888888886
aF37.89
aF14.305555555555555
aF12.777777777777779
aF7.333333333333333
aF4.194444444444445
aF21.27777777777778
aF23.88888888888889
aF56.69444444444444
aF42.14
aF4.944444444444445
aF15.38888888888889
aF32.13
aF17.25
aF25.305555555555557
aF68.17
aF69.97222222222223
aF69.97
aF11.694444444444445
aF22.61111111111111
aF34.30555555555556
aF34.31
aF11.055555555555555
aF16.055555555555557
aF6.111111111111111
aF3.0
aF20.97222222222222
aF4.0
aF4.75
aF3.25
aF0.3611111111111107
aF0.3888888888888893
aF1.5
aF0.8611111111111107
aF-0.16666666666666785
aF3.8700000000000045
aF9.222222222222214
aF9.219999999999999
aF1.5277777777777768
aF2.055555555555557
aF3.5833333333333286
aF3.5799999999999983
aF3.25
aF-3.2777777777777786
aF1.2222222222222223
aF1.1944444444444446
aF0.30555555555555713
aF25.34285714285714
aF57.8
aF43.85
aF7.8
aF21.114285714285714
aF36.94
aF17.37142857142857
aF25.97142857142857
aF66.89
aF75.85714285714286
aF75.86
aF13.114285714285714
aF25.37142857142857
aF38.48571428571429
aF38.49
aF14.2
aF11.057142857142857
aF6.628571428571429
aF3.4285714285714284
aF17.571428571428573
aF23.514285714285716
aF54.91428571428571
aF42.82
aF7.285714285714286
aF21.857142857142858
aF33.33
aF12.885714285714286
aF19.228571428571428
aF67.01
aF67.2
aF67.2
aF9.457142857142857
aF23.82857142857143
aF33.285714285714285
aF33.29
aF13.342857142857143
aF13.571428571428571
aF5.6
aF2.7714285714285714
aF22.514285714285716
aF1.8285714285714256
aF2.885714285714286
aF1.0300000000000011
aF0.5142857142857142
aF-0.7428571428571438
aF3.6099999999999994
aF4.485714285714284
aF6.742857142857144
aF-0.12000000000000455
aF8.657142857142858
aF8.659999999999997
aF3.6571428571428566
aF1.542857142857141
aF5.200000000000003
aF5.200000000000003
aF0.8571428571428559
aF-2.5142857142857142
aF1.0285714285714294
aF0.657142857142857
aF-4.942857142857143
aa(lp39
F26.161290322580644
aF60.29032258064516
aF43.39
aF4.32258064516129
aF14.03225806451613
aF30.8
aF16.161290322580644
aF24.580645161290324
aF65.75
aF72.80645161290323
aF72.81
aF14.935483870967742
aF27.193548387096776
aF42.12903225806452
aF42.13
aF11.903225806451612
aF15.193548387096774
aF7.129032258064516
aF5.225806451612903
aF20.129032258064516
aF23.806451612903224
aF60.96774193548387
aF39.05
aF5.774193548387097
aF19.774193548387096
aF29.2
aF16.129032258064516
aF23.483870967741936
aF68.68
aF69.51612903225806
aF69.52
aF13.838709677419354
aF23.516129032258064
aF37.354838709677416
aF37.35
aF11.419354838709678
aF13.741935483870968
aF7.161290322580645
aF3.903225806451613
aF20.903225806451612
aF2.35483870967742
aF-0.6774193548387117
aF4.340000000000003
aF-1.451612903225807
aF-5.741935483870966
aF1.6000000000000014
aF0.032258064516128115
aF1.096774193548388
aF-2.930000000000007
aF3.2903225806451672
aF3.2900000000000063
aF1.096774193548388
aF3.6774193548387117
aF4.774193548387103
aF4.780000000000001
aF0.48387096774193417
aF1.451612903225806
aF-0.032258064516129004
aF1.32258064516129
aF-0.7741935483870961
aF28.05263157894737
aF58.63157894736842
aF47.85
aF6.078947368421052
aF18.342105263157894
aF33.14
aF17.07894736842105
aF25.55263157894737
aF66.84
aF79.26315789473684
aF79.26
aF14.421052631578947
aF27.263157894736842
aF41.68421052631579
aF41.68
aF15.078947368421053
aF14.394736842105264
aF7.342105263157895
aF7.184210526315789
aF16.86842105263158
aF23.026315789473685
aF60.89473684210526
aF37.81
aF6.447368421052632
aF20.605263157894736
aF31.29
aF12.447368421052632
aF18.105263157894736
aF68.75
aF64.94736842105263
aF64.95
aF12.842105263157896
aF20.763157894736842
aF33.60526315789474
aF33.61
aF11.0
aF13.973684210526315
aF6.868421052631579
aF3.1315789473684212
aF20.92105263157895
aF5.026315789473685
aF-2.2631578947368425
aF10.04
aF-0.36842105263157965
aF-2.2631578947368425
aF1.8500000000000014
aF4.6315789473684195
aF7.447368421052634
aF-1.9099999999999966
aF14.315789473684205
aF14.310000000000002
aF1.5789473684210513
aF6.5
aF8.078947368421048
aF8.07
aF4.078947368421053
aF0.4210526315789487
aF0.47368421052631593
aF4.052631578947368
aF-4.05263157894737
aa(lp40
F27.764705882352942
aF57.35294117647059
aF48.41
aF8.352941176470589
aF20.558823529411764
aF40.63
aF14.588235294117647
aF19.176470588235293
aF76.07
aF78.47058823529412
aF78.47
aF10.882352941176471
aF25.705882352941178
aF36.588235294117645
aF36.59
aF15.970588235294118
aF11.588235294117647
aF4.9411764705882355
aF5.176470588235294
aF16.470588235294116
aF25.176470588235293
aF59.5
aF42.31
aF4.235294117647059
aF14.058823529411764
aF30.13
aF11.823529411764707
aF17.823529411764707
aF66.34
aF66.41176470588235
aF66.41
aF11.470588235294118
aF20.764705882352942
aF32.23529411764706
aF32.24
aF9.764705882352942
aF10.852941176470589
aF5.647058823529412
aF2.323529411764706
aF17.61764705882353
aF2.5882352941176485
aF-2.147058823529413
aF6.099999999999994
aF4.11764705882353
aF6.5
aF10.500000000000004
aF2.7647058823529402
aF1.352941176470587
aF9.72999999999999
aF12.058823529411768
aF12.060000000000002
aF-0.5882352941176467
aF4.9411764705882355
aF4.352941176470587
aF4.350000000000001
aF6.205882352941176
aF0.735294117647058
aF-0.7058823529411766
aF2.8529411764705883
aF-1.147058823529413
aF27.242424242424242
aF59.45454545454545
aF45.82
aF7.636363636363637
aF20.484848484848484
aF37.28
aF19.696969696969695
aF26.09090909090909
aF75.49
aF81.81818181818181
aF81.82
aF13.393939393939394
aF25.151515151515152
aF38.54545454545455
aF38.55
aF13.575757575757576
aF13.696969696969697
aF7.848484848484849
aF4.03030303030303
aF22.151515151515152
aF23.0
aF56.21212121212121
aF40.92
aF7.2727272727272725
aF21.636363636363637
aF33.61
aF19.575757575757574
aF27.575757575757574
aF70.99
aF72.84848484848484
aF72.85
aF11.818181818181818
aF22.060606060606062
aF33.878787878787875
aF33.88
aF13.515151515151516
aF15.272727272727273
aF6.575757575757576
aF4.2727272727272725
aF21.12121212121212
aF4.242424242424242
aF3.242424242424242
aF4.899999999999999
aF0.3636363636363642
aF-1.1515151515151523
aF3.6700000000000017
aF0.1212121212121211
aF-1.4848484848484844
aF4.5
aF8.969696969696969
aF8.969999999999999
aF1.5757575757575761
aF3.09090909090909
aF4.666666666666671
aF4.669999999999995
aF0.06060606060606055
aF-1.5757575757575761
aF1.2727272727272725
aF-0.2424242424242422
aF1.0303030303030312
aa(lp41
F26.333333333333332
aF57.333333333333336
aF45.93
aF5.916666666666667
aF16.305555555555557
aF36.29
aF14.222222222222221
aF21.63888888888889
aF65.73
aF72.80555555555556
aF72.81
aF13.25
aF26.47222222222222
aF39.72222222222222
aF39.72
aF14.11111111111111
aF16.416666666666668
aF8.0
aF5.277777777777778
aF18.61111111111111
aF22.72222222222222
aF59.138888888888886
aF38.42
aF6.666666666666667
aF21.166666666666668
aF31.5
aF13.583333333333334
aF20.38888888888889
aF66.62
aF65.69444444444444
aF65.69
aF13.38888888888889
aF21.583333333333332
aF34.97222222222222
aF34.97
aF13.11111111111111
aF15.194444444444445
aF7.888888888888889
aF3.138888888888889
aF19.083333333333332
aF3.6111111111111107
aF-1.80555555555555
aF7.509999999999998
aF-0.75
aF-4.861111111111111
aF4.789999999999999
aF0.6388888888888875
aF1.25
aF-0.8900000000000006
aF7.111111111111114
aF7.1200000000000045
aF-0.13888888888888928
aF4.888888888888889
aF4.75
aF4.75
aF1.0
aF1.2222222222222232
aF0.11111111111111072
aF2.138888888888889
aF-0.47222222222222143
aF26.56756756756757
aF54.027027027027025
aF49.17
aF7.45945945945946
aF19.135135135135137
aF38.98
aF13.45945945945946
aF19.35135135135135
aF69.55
aF74.05405405405405
aF74.05
aF9.108108108108109
aF24.243243243243242
aF33.351351351351354
aF33.35
aF14.72972972972973
aF11.432432432432432
aF7.081081081081081
aF4.243243243243243
aF15.27027027027027
aF22.324324324324323
aF54.45945945945946
aF40.99
aF6.621621621621622
aF19.64864864864865
aF33.7
aF10.18918918918919
aF14.35135135135135
aF71.0
aF61.45945945945946
aF61.46
aF10.08108108108108
aF21.64864864864865
aF31.72972972972973
aF31.73
aF12.45945945945946
aF14.297297297297296
aF5.378378378378378
aF2.027027027027027
aF18.18918918918919
aF4.243243243243246
aF-0.4324324324324351
aF8.18
aF0.8378378378378377
aF-0.5135135135135123
aF5.279999999999994
aF3.27027027027027
aF5.0
aF-1.4500000000000028
aF12.59459459459459
aF12.589999999999996
aF-0.9729729729729719
aF2.594594594594593
aF1.6216216216216246
aF1.620000000000001
aF2.27027027027027
aF-2.864864864864865
aF1.7027027027027026
aF2.216216216216216
aF-2.9189189189189193
aa(lp42
F27.457142857142856
aF59.48571428571429
aF46.16
aF7.142857142857143
aF18.97142857142857
aF37.65
aF17.742857142857144
aF24.942857142857143
aF71.13
aF79.8
aF79.8
aF12.685714285714285
aF27.742857142857144
aF40.42857142857143
aF40.43
aF14.114285714285714
aF12.914285714285715
aF6.714285714285714
aF3.7714285714285714
aF18.914285714285715
aF25.257142857142856
aF61.65714285714286
aF40.96
aF5.742857142857143
aF19.257142857142856
aF29.82
aF13.257142857142858
aF20.257142857142856
aF65.44
aF69.51428571428572
aF69.51
aF11.857142857142858
aF23.314285714285713
aF35.17142857142857
aF35.17
aF13.4
aF12.82857142857143
aF6.4
aF5.0
aF20.771428571428572
aF2.1999999999999993
aF-2.171428571428571
aF5.199999999999996
aF1.4000000000000004
aF-0.2857142857142847
aF7.829999999999998
aF4.485714285714286
aF4.685714285714287
aF5.689999999999998
aF10.285714285714278
aF10.289999999999992
aF0.8285714285714274
aF4.428571428571431
aF5.25714285714286
aF5.259999999999998
aF0.7142857142857135
aF0.08571428571428541
aF0.31428571428571406
aF-1.2285714285714286
aF-1.8571428571428577
aF23.794117647058822
aF53.26470588235294
aF44.67
aF5.323529411764706
aF15.470588235294118
aF34.41
aF15.794117647058824
aF22.794117647058822
aF69.29
aF68.70588235294117
aF68.71
aF12.294117647058824
aF25.029411764705884
aF37.3235294117647
aF37.32
aF15.764705882352942
aF12.382352941176471
aF5.205882352941177
aF4.088235294117647
aF17.470588235294116
aF22.176470588235293
aF55.38235294117647
aF40.04
aF5.0588235294117645
aF16.11764705882353
aF31.39
aF12.382352941176471
aF18.735294117647058
aF66.09
aF61.794117647058826
aF61.79
aF11.323529411764707
aF21.0
aF32.3235294117647
aF32.32
aF11.147058823529411
aF10.794117647058824
aF5.470588235294118
aF3.911764705882353
aF19.5
aF1.617647058823529
aF-2.117647058823529
aF4.630000000000003
aF0.2647058823529411
aF-0.6470588235294112
aF3.019999999999996
aF3.4117647058823533
aF4.0588235294117645
aF3.200000000000003
aF6.911764705882348
aF6.919999999999995
aF0.9705882352941178
aF4.029411764705884
aF5.0
aF5.0
aF4.617647058823531
aF1.5882352941176467
aF-0.2647058823529411
aF0.17647058823529393
aF-2.029411764705884
aa(lp43
F23.91176470588235
aF54.294117647058826
aF44.04
aF6.176470588235294
aF18.41176470588235
aF33.55
aF17.352941176470587
aF26.235294117647058
aF66.14
aF71.3529411764706
aF71.35
aF11.764705882352942
aF25.058823529411764
aF36.8235294117647
aF36.82
aF12.264705882352942
aF12.264705882352942
aF6.5588235294117645
aF3.323529411764706
aF18.205882352941178
aF22.38235294117647
aF54.529411764705884
aF41.05
aF6.0588235294117645
aF18.147058823529413
aF33.39
aF13.647058823529411
aF19.41176470588235
aF70.3
aF64.47058823529412
aF64.47
aF10.5
aF23.61764705882353
aF34.11764705882353
aF34.12
aF12.088235294117647
aF13.911764705882353
aF6.382352941176471
aF4.352941176470588
aF21.941176470588236
aF1.5294117647058805
aF-0.235294117647058
aF2.990000000000002
aF0.11764705882352988
aF0.26470588235293846
aF0.1599999999999966
aF3.7058823529411757
aF6.8235294117647065
aF-4.159999999999997
aF6.882352941176478
aF6.8799999999999955
aF1.264705882352942
aF1.4411764705882355
aF2.705882352941174
aF2.700000000000003
aF0.17647058823529527
aF-1.6470588235294112
aF0.1764705882352935
aF-1.0294117647058818
aF-3.735294117647058
aF24.771428571428572
aF55.91428571428571
aF44.3
aF5.3428571428571425
aF16.8
aF31.8
aF15.6
aF21.571428571428573
aF72.32
aF70.48571428571428
aF70.49
aF10.028571428571428
aF23.4
aF33.42857142857143
aF33.43
aF14.085714285714285
aF10.885714285714286
aF7.085714285714285
aF4.628571428571429
aF18.6
aF21.057142857142857
aF52.82857142857143
aF39.86
aF5.257142857142857
aF14.857142857142858
aF35.38
aF13.885714285714286
aF19.428571428571427
aF71.47
aF61.25714285714286
aF61.26
aF10.885714285714286
aF24.114285714285714
aF35.0
aF35.0
aF10.8
aF15.685714285714285
aF5.2
aF2.6
aF18.885714285714286
aF3.7142857142857153
aF3.085714285714282
aF4.439999999999998
aF0.08571428571428541
aF1.942857142857143
aF-3.580000000000002
aF1.7142857142857135
aF2.142857142857146
aF0.8499999999999943
aF9.22857142857142
aF9.229999999999997
aF-0.8571428571428577
aF-0.7142857142857153
aF-1.5714285714285694
aF-1.5700000000000003
aF3.2857142857142847
aF-4.799999999999999
aF1.8857142857142852
aF2.028571428571429
aF-0.2857142857142847
aa(lp44
F26.823529411764707
aF54.588235294117645
aF49.14
aF5.352941176470588
aF15.176470588235293
aF35.27
aF17.88235294117647
aF26.941176470588236
aF66.38
aF76.88235294117646
aF76.88
aF10.529411764705882
aF27.294117647058822
aF37.8235294117647
aF37.82
aF13.411764705882353
aF13.058823529411764
aF6.676470588235294
aF4.176470588235294
aF18.058823529411764
aF24.058823529411764
aF59.0
aF40.78
aF6.352941176470588
aF19.264705882352942
aF32.98
aF12.911764705882353
aF19.91176470588235
aF64.84
aF67.38235294117646
aF67.38
aF11.088235294117647
aF22.264705882352942
aF33.35294117647059
aF33.35
aF12.235294117647058
aF13.0
aF6.588235294117647
aF2.8823529411764706
aF21.294117647058822
aF2.764705882352942
aF-4.411764705882355
aF8.36
aF-1.0
aF-4.0882352941176485
aF2.2900000000000063
aF4.970588235294118
aF7.029411764705884
aF1.539999999999992
aF9.5
aF9.5
aF-0.5588235294117645
aF5.0294117647058805
aF4.470588235294116
aF4.469999999999999
aF1.1764705882352953
aF0.0588235294117645
aF0.08823529411764763
aF1.2941176470588238
aF-3.235294117647058
aF29.771428571428572
aF57.74285714285714
aF51.56
aF6.9714285714285715
aF17.82857142857143
aF39.1
aF14.4
aF21.285714285714285
aF67.65
aF80.91428571428571
aF80.91
aF11.914285714285715
aF26.285714285714285
aF38.2
aF38.2
aF19.228571428571428
aF15.2
aF9.6
aF6.314285714285714
aF14.714285714285714
aF24.457142857142856
aF61.457142857142856
aF39.8
aF7.457142857142857
aF24.685714285714287
aF30.21
aF10.028571428571428
aF15.742857142857142
aF63.7
aF66.4
aF66.4
aF13.714285714285714
aF20.228571428571428
aF33.94285714285714
aF33.94
aF15.514285714285714
aF15.628571428571428
aF8.457142857142857
aF2.2857142857142856
aF17.942857142857143
aF5.314285714285717
aF-3.7142857142857153
aF11.760000000000005
aF-0.48571428571428577
aF-6.857142857142858
aF8.89
aF4.371428571428572
aF5.542857142857143
aF3.950000000000003
aF14.514285714285705
aF14.509999999999991
aF-1.799999999999999
aF6.057142857142857
aF4.25714285714286
aF4.260000000000005
aF3.7142857142857135
aF-0.4285714285714288
aF1.1428571428571423
aF4.0285714285714285
aF-3.2285714285714295
aa(lp45
F27.235294117647058
aF61.88235294117647
aF44.01
aF7.588235294117647
aF20.61764705882353
aF36.8
aF15.205882352941176
aF21.0
aF72.41
aF77.26470588235294
aF77.26
aF12.970588235294118
aF22.323529411764707
aF35.294117647058826
aF35.29
aF15.352941176470589
aF12.705882352941176
aF10.911764705882353
aF4.705882352941177
aF19.294117647058822
aF22.794117647058822
aF55.588235294117645
aF41.01
aF5.4411764705882355
aF17.176470588235293
aF31.68
aF15.205882352941176
aF21.647058823529413
aF70.24
aF66.23529411764706
aF66.24
aF13.764705882352942
aF24.41176470588235
aF38.1764705882353
aF38.18
aF11.235294117647058
aF19.38235294117647
aF6.0
aF3.088235294117647
aF18.852941176470587
aF4.4411764705882355
aF6.294117647058826
aF3.0
aF2.1470588235294112
aF3.4411764705882355
aF5.119999999999997
aF0.0
aF-0.647058823529413
aF2.1700000000000017
aF11.029411764705884
aF11.02000000000001
aF-0.7941176470588243
aF-2.088235294117645
aF-2.882352941176471
aF-2.8900000000000006
aF4.117647058823531
aF-6.676470588235295
aF4.911764705882353
aF1.6176470588235294
aF0.4411764705882355
aF24.789473684210527
aF57.63157894736842
aF43.01
aF6.7631578947368425
aF20.05263157894737
aF33.73
aF16.07894736842105
aF22.842105263157894
aF70.39
aF72.42105263157895
aF72.42
aF15.394736842105264
aF23.210526315789473
aF38.60526315789474
aF38.61
aF15.5
aF11.868421052631579
aF5.605263157894737
aF4.078947368421052
aF18.05263157894737
aF22.0
aF52.81578947368421
aF41.65
aF5.5
aF17.0
aF32.35
aF14.026315789473685
aF20.657894736842106
aF67.9
aF63.526315789473685
aF63.53
aF10.973684210526315
aF21.236842105263158
aF32.21052631578947
aF32.21
aF11.5
aF13.394736842105264
aF6.131578947368421
aF2.973684210526316
aF21.0
aF2.7894736842105274
aF4.815789473684205
aF1.3599999999999994
aF1.2631578947368425
aF3.05263157894737
aF1.3799999999999955
aF2.0526315789473664
aF2.1842105263157876
aF2.489999999999995
aF8.89473684210526
aF8.89
aF4.421052631578949
aF1.973684210526315
aF6.394736842105267
aF6.399999999999999
aF4.0
aF-1.526315789473685
aF-0.5263157894736841
aF1.1052631578947363
aF-2.94736842105263
aa(lp46
F26.852941176470587
aF55.705882352941174
aF48.2
aF9.588235294117647
aF22.323529411764707
aF42.95
aF11.558823529411764
aF15.823529411764707
aF73.05
aF76.3529411764706
aF76.35
aF10.382352941176471
aF23.41176470588235
aF33.794117647058826
aF33.79
aF15.970588235294118
aF12.176470588235293
aF7.147058823529412
aF3.588235294117647
aF17.58823529411765
aF21.91176470588235
aF52.26470588235294
aF41.92
aF5.794117647058823
aF17.029411764705884
aF34.02
aF13.735294117647058
aF19.352941176470587
aF70.97
aF64.47058823529412
aF64.47
aF9.852941176470589
aF20.794117647058822
aF30.647058823529413
aF30.65
aF11.5
aF13.617647058823529
aF6.382352941176471
aF2.8529411764705883
aF16.5
aF4.9411764705882355
aF3.441176470588232
aF6.280000000000001
aF3.7941176470588234
aF5.2941176470588225
aF8.93
aF-2.1764705882352935
aF-3.5294117647058805
aF2.0799999999999983
aF11.882352941176478
aF11.879999999999995
aF0.5294117647058822
aF2.617647058823529
aF3.147058823529413
aF3.1400000000000006
aF4.470588235294118
aF-1.4411764705882355
aF0.7647058823529411
aF0.7352941176470589
aF1.0882352941176485
aF23.515151515151516
aF53.03030303030303
aF44.34
aF7.454545454545454
aF20.90909090909091
aF35.65
aF12.606060606060606
aF17.21212121212121
aF73.24
aF67.0909090909091
aF67.09
aF9.696969696969697
aF22.303030303030305
aF32.0
aF32.0
aF12.484848484848484
aF8.757575757575758
aF5.666666666666667
aF3.4242424242424243
aF16.272727272727273
aF20.393939393939394
aF48.06060606060606
aF42.43
aF4.181818181818182
aF12.181818181818182
aF34.33
aF11.93939393939394
aF17.333333333333332
aF68.88
aF56.90909090909091
aF56.91
aF7.96969696969697
aF22.393939393939394
aF30.363636363636363
aF30.36
aF9.515151515151516
aF12.0
aF4.484848484848484
aF2.242424242424242
aF17.757575757575758
aF3.121212121212121
aF4.969696969696969
aF1.9100000000000037
aF3.2727272727272725
aF8.727272727272728
aF1.3200000000000003
aF0.6666666666666661
aF-0.1212121212121211
aF4.359999999999999
aF10.181818181818187
aF10.180000000000007
aF1.7272727272727275
aF-0.09090909090908994
aF1.6363636363636367
aF1.6400000000000006
aF2.969696969696969
aF-3.242424242424242
aF1.1818181818181825
aF1.181818181818182
aF-1.4848484848484844
aa(lp47
F27.6
aF57.94285714285714
aF47.63
aF6.514285714285714
aF17.4
aF37.44
aF15.514285714285714
aF20.485714285714284
aF75.73
aF77.22857142857143
aF77.23
aF11.285714285714286
aF24.17142857142857
aF35.457142857142856
aF35.46
aF14.285714285714286
aF12.028571428571428
aF5.6571428571428575
aF2.4571428571428573
aF16.942857142857143
aF24.742857142857144
aF56.94285714285714
aF43.45
aF5.571428571428571
aF17.65714285714286
aF31.55
aF13.142857142857142
aF18.942857142857143
aF69.38
aF68.2
aF68.2
aF10.885714285714286
aF21.2
aF32.08571428571429
aF32.09
aF12.428571428571429
aF12.771428571428572
aF5.514285714285714
aF3.7714285714285714
aF17.37142857142857
aF2.8571428571428577
aF1.0
aF4.18
aF0.9428571428571431
aF-0.2571428571428598
aF5.889999999999997
aF2.371428571428572
aF1.542857142857141
aF6.3500000000000085
aF9.028571428571425
aF9.030000000000001
aF0.40000000000000036
aF2.9714285714285715
aF3.3714285714285666
aF3.3699999999999974
aF1.8571428571428577
aF-0.7428571428571438
aF0.14285714285714324
aF-1.314285714285714
aF-0.42857142857142705
aF26.225
aF59.375
aF44.17
aF7.525
aF19.55
aF38.49
aF17.05
aF22.475
aF75.86
aF77.025
aF77.03
aF14.55
aF24.45
aF39.0
aF39.0
aF13.875
aF11.0
aF6.65
aF4.05
aF18.05
aF22.1
aF55.1
aF40.11
aF3.95
aF13.975
aF28.26
aF12.875
aF18.75
aF68.67
aF61.025
aF61.02
aF11.7
aF21.05
aF32.75
aF32.75
aF10.825
aF14.225
aF5.25
aF3.875
aF19.6
aF4.125
aF4.274999999999999
aF4.060000000000002
aF3.575
aF5.575000000000001
aF10.23
aF4.175000000000001
aF3.7250000000000014
aF7.189999999999998
aF16.000000000000007
aF16.009999999999998
aF2.8500000000000014
aF3.3999999999999986
aF6.25
aF6.25
aF3.0500000000000007
aF-3.2249999999999996
aF1.4000000000000004
aF0.17499999999999982
aF-1.5500000000000007
aa(lp48
F26.324324324324323
aF55.891891891891895
aF47.1
aF5.054054054054054
aF14.675675675675675
aF34.44
aF14.135135135135135
aF20.64864864864865
aF68.46
aF71.83783783783784
aF71.84
aF13.162162162162161
aF25.37837837837838
aF38.54054054054054
aF38.54
aF16.37837837837838
aF13.891891891891891
aF6.54054054054054
aF3.324324324324324
aF18.0
aF22.405405405405407
aF55.21621621621622
aF40.58
aF6.702702702702703
aF20.405405405405407
aF32.85
aF12.297297297297296
aF17.35135135135135
aF70.87
aF63.810810810810814
aF63.81
aF10.08108108108108
aF19.89189189189189
aF29.972972972972972
aF29.97
aF12.486486486486486
aF12.405405405405405
aF6.5675675675675675
aF2.5405405405405403
aF17.594594594594593
aF3.9189189189189158
aF0.6756756756756772
aF6.520000000000003
aF-1.6486486486486482
aF-5.729729729729732
aF1.5899999999999963
aF1.8378378378378386
aF3.2972972972972983
aF-2.410000000000011
aF8.027027027027025
aF8.030000000000001
aF3.0810810810810807
aF5.486486486486488
aF8.567567567567568
aF8.57
aF3.891891891891893
aF1.486486486486486
aF-0.027027027027027195
aF0.7837837837837838
aF0.40540540540540704
aF29.272727272727273
aF62.18181818181818
aF47.08
aF5.909090909090909
aF15.454545454545455
aF38.24
aF15.212121212121213
aF20.87878787878788
aF72.86
aF79.66666666666667
aF79.67
aF12.757575757575758
aF25.727272727272727
aF38.484848484848484
aF38.48
aF16.515151515151516
aF11.606060606060606
aF7.757575757575758
aF4.666666666666667
aF16.78787878787879
aF24.484848484848484
aF62.18181818181818
aF39.38
aF6.696969696969697
aF19.696969696969695
aF34.0
aF12.636363636363637
aF18.242424242424242
aF69.27
aF68.3030303030303
aF68.3
aF14.848484848484848
aF23.09090909090909
aF37.93939393939394
aF37.94
aF11.636363636363637
aF15.121212121212121
aF5.606060606060606
aF3.515151515151515
aF18.575757575757574
aF4.787878787878789
aF0.0
aF7.699999999999996
aF-0.7878787878787881
aF-4.24242424242424
aF4.240000000000002
aF2.575757575757576
aF2.6363636363636367
aF3.5900000000000034
aF11.363636363636374
aF11.370000000000005
aF-2.09090909090909
aF2.6363636363636367
aF0.5454545454545467
aF0.5399999999999991
aF4.878787878787879
aF-3.5151515151515156
aF2.1515151515151514
aF1.1515151515151518
aF-1.7878787878787854
aa(lp49
F27.88888888888889
aF61.44444444444444
aF45.39
aF5.305555555555555
aF15.777777777777779
aF33.63
aF18.11111111111111
aF25.13888888888889
aF72.04
aF79.19444444444444
aF79.19
aF13.222222222222221
aF24.666666666666668
aF37.888888888888886
aF37.89
aF14.305555555555555
aF12.777777777777779
aF7.333333333333333
aF4.194444444444445
aF21.27777777777778
aF23.88888888888889
aF56.69444444444444
aF42.14
aF4.944444444444445
aF15.38888888888889
aF32.13
aF17.25
aF25.305555555555557
aF68.17
aF69.97222222222223
aF69.97
aF11.694444444444445
aF22.61111111111111
aF34.30555555555556
aF34.31
aF11.055555555555555
aF16.055555555555557
aF6.111111111111111
aF3.0
aF20.97222222222222
aF4.0
aF4.75
aF3.25
aF0.3611111111111107
aF0.3888888888888893
aF1.5
aF0.8611111111111107
aF-0.16666666666666785
aF3.8700000000000045
aF9.222222222222214
aF9.219999999999999
aF1.5277777777777768
aF2.055555555555557
aF3.5833333333333286
aF3.5799999999999983
aF3.25
aF-3.2777777777777786
aF1.2222222222222223
aF1.1944444444444446
aF0.30555555555555713
aF24.789473684210527
aF57.63157894736842
aF43.01
aF6.7631578947368425
aF20.05263157894737
aF33.73
aF16.07894736842105
aF22.842105263157894
aF70.39
aF72.42105263157895
aF72.42
aF15.394736842105264
aF23.210526315789473
aF38.60526315789474
aF38.61
aF15.5
aF11.868421052631579
aF5.605263157894737
aF4.078947368421052
aF18.05263157894737
aF22.0
aF52.81578947368421
aF41.65
aF5.5
aF17.0
aF32.35
aF14.026315789473685
aF20.657894736842106
aF67.9
aF63.526315789473685
aF63.53
aF10.973684210526315
aF21.236842105263158
aF32.21052631578947
aF32.21
aF11.5
aF13.394736842105264
aF6.131578947368421
aF2.973684210526316
aF21.0
aF2.7894736842105274
aF4.815789473684205
aF1.3599999999999994
aF1.2631578947368425
aF3.05263157894737
aF1.3799999999999955
aF2.0526315789473664
aF2.1842105263157876
aF2.489999999999995
aF8.89473684210526
aF8.89
aF4.421052631578949
aF1.973684210526315
aF6.394736842105267
aF6.399999999999999
aF4.0
aF-1.526315789473685
aF-0.5263157894736841
aF1.1052631578947363
aF-2.94736842105263
aa(lp50
F26.852941176470587
aF55.705882352941174
aF48.2
aF9.588235294117647
aF22.323529411764707
aF42.95
aF11.558823529411764
aF15.823529411764707
aF73.05
aF76.3529411764706
aF76.35
aF10.382352941176471
aF23.41176470588235
aF33.794117647058826
aF33.79
aF15.970588235294118
aF12.176470588235293
aF7.147058823529412
aF3.588235294117647
aF17.58823529411765
aF21.91176470588235
aF52.26470588235294
aF41.92
aF5.794117647058823
aF17.029411764705884
aF34.02
aF13.735294117647058
aF19.352941176470587
aF70.97
aF64.47058823529412
aF64.47
aF9.852941176470589
aF20.794117647058822
aF30.647058823529413
aF30.65
aF11.5
aF13.617647058823529
aF6.382352941176471
aF2.8529411764705883
aF16.5
aF4.9411764705882355
aF3.441176470588232
aF6.280000000000001
aF3.7941176470588234
aF5.2941176470588225
aF8.93
aF-2.1764705882352935
aF-3.5294117647058805
aF2.0799999999999983
aF11.882352941176478
aF11.879999999999995
aF0.5294117647058822
aF2.617647058823529
aF3.147058823529413
aF3.1400000000000006
aF4.470588235294118
aF-1.4411764705882355
aF0.7647058823529411
aF0.7352941176470589
aF1.0882352941176485
aF28.05263157894737
aF58.63157894736842
aF47.85
aF6.078947368421052
aF18.342105263157894
aF33.14
aF17.07894736842105
aF25.55263157894737
aF66.84
aF79.26315789473684
aF79.26
aF14.421052631578947
aF27.263157894736842
aF41.68421052631579
aF41.68
aF15.078947368421053
aF14.394736842105264
aF7.342105263157895
aF7.184210526315789
aF16.86842105263158
aF23.026315789473685
aF60.89473684210526
aF37.81
aF6.447368421052632
aF20.605263157894736
aF31.29
aF12.447368421052632
aF18.105263157894736
aF68.75
aF64.94736842105263
aF64.95
aF12.842105263157896
aF20.763157894736842
aF33.60526315789474
aF33.61
aF11.0
aF13.973684210526315
aF6.868421052631579
aF3.1315789473684212
aF20.92105263157895
aF5.026315789473685
aF-2.2631578947368425
aF10.04
aF-0.36842105263157965
aF-2.2631578947368425
aF1.8500000000000014
aF4.6315789473684195
aF7.447368421052634
aF-1.9099999999999966
aF14.315789473684205
aF14.310000000000002
aF1.5789473684210513
aF6.5
aF8.078947368421048
aF8.07
aF4.078947368421053
aF0.4210526315789487
aF0.47368421052631593
aF4.052631578947368
aF-4.05263157894737
aa(lp51
F27.457142857142856
aF59.48571428571429
aF46.16
aF7.142857142857143
aF18.97142857142857
aF37.65
aF17.742857142857144
aF24.942857142857143
aF71.13
aF79.8
aF79.8
aF12.685714285714285
aF27.742857142857144
aF40.42857142857143
aF40.43
aF14.114285714285714
aF12.914285714285715
aF6.714285714285714
aF3.7714285714285714
aF18.914285714285715
aF25.257142857142856
aF61.65714285714286
aF40.96
aF5.742857142857143
aF19.257142857142856
aF29.82
aF13.257142857142858
aF20.257142857142856
aF65.44
aF69.51428571428572
aF69.51
aF11.857142857142858
aF23.314285714285713
aF35.17142857142857
aF35.17
aF13.4
aF12.82857142857143
aF6.4
aF5.0
aF20.771428571428572
aF2.1999999999999993
aF-2.171428571428571
aF5.199999999999996
aF1.4000000000000004
aF-0.2857142857142847
aF7.829999999999998
aF4.485714285714286
aF4.685714285714287
aF5.689999999999998
aF10.285714285714278
aF10.289999999999992
aF0.8285714285714274
aF4.428571428571431
aF5.25714285714286
aF5.259999999999998
aF0.7142857142857135
aF0.08571428571428541
aF0.31428571428571406
aF-1.2285714285714286
aF-1.8571428571428577
aF26.513513513513512
aF58.972972972972975
aF44.96
aF6.837837837837838
aF19.0
aF35.99
aF19.83783783783784
aF29.675675675675677
aF66.85
aF79.70270270270271
aF79.7
aF15.108108108108109
aF23.72972972972973
aF38.83783783783784
aF38.84
aF14.621621621621621
aF14.297297297297296
aF7.405405405405405
aF5.054054054054054
aF22.37837837837838
aF23.054054054054053
aF55.054054054054056
aF41.88
aF5.648648648648648
aF16.62162162162162
aF33.98
aF18.08108108108108
aF25.81081081081081
aF70.05
aF69.83783783783784
aF69.84
aF12.18918918918919
aF22.324324324324323
aF34.513513513513516
aF34.51
aF11.891891891891891
aF16.864864864864863
aF6.918918918918919
aF3.3513513513513513
aF24.16216216216216
aF3.4594594594594597
aF3.9189189189189193
aF3.0799999999999983
aF1.1891891891891895
aF2.378378378378379
aF2.010000000000005
aF1.756756756756758
aF3.8648648648648667
aF-3.200000000000003
aF9.86486486486487
aF9.86
aF2.9189189189189193
aF1.405405405405407
aF4.324324324324323
aF4.330000000000005
aF2.72972972972973
aF-2.5675675675675667
aF0.48648648648648596
aF1.702702702702703
aF-1.7837837837837824
aa(lp52
F22.236842105263158
aF50.28947368421053
aF44.22
aF6.842105263157895
aF20.026315789473685
aF34.17
aF17.394736842105264
aF23.57894736842105
aF73.77
aF68.71052631578948
aF68.71
aF9.289473684210526
aF23.36842105263158
aF32.6578947368421
aF32.66
aF12.210526315789474
aF12.0
aF7.026315789473684
aF2.263157894736842
aF18.026315789473685
aF21.18421052631579
aF50.94736842105263
aF41.58
aF5.105263157894737
aF16.105263157894736
aF31.7
aF11.947368421052632
aF17.605263157894736
aF67.86
aF59.421052631578945
aF59.42
aF8.81578947368421
aF21.236842105263158
aF30.05263157894737
aF30.05
aF10.710526315789474
aF13.921052631578947
aF5.2631578947368425
aF3.1578947368421053
aF20.5
aF1.0526315789473664
aF-0.6578947368421026
aF2.6400000000000006
aF1.7368421052631575
aF3.9210526315789487
aF2.4700000000000024
aF5.447368421052632
aF5.973684210526315
aF5.909999999999997
aF9.289473684210535
aF9.289999999999992
aF0.47368421052631504
aF2.1315789473684212
aF2.6052631578947327
aF2.609999999999996
aF1.5
aF-1.921052631578947
aF1.7631578947368416
aF-0.8947368421052633
aF-2.473684210526315
aF29.771428571428572
aF57.74285714285714
aF51.56
aF6.9714285714285715
aF17.82857142857143
aF39.1
aF14.4
aF21.285714285714285
aF67.65
aF80.91428571428571
aF80.91
aF11.914285714285715
aF26.285714285714285
aF38.2
aF38.2
aF19.228571428571428
aF15.2
aF9.6
aF6.314285714285714
aF14.714285714285714
aF24.457142857142856
aF61.457142857142856
aF39.8
aF7.457142857142857
aF24.685714285714287
aF30.21
aF10.028571428571428
aF15.742857142857142
aF63.7
aF66.4
aF66.4
aF13.714285714285714
aF20.228571428571428
aF33.94285714285714
aF33.94
aF15.514285714285714
aF15.628571428571428
aF8.457142857142857
aF2.2857142857142856
aF17.942857142857143
aF5.314285714285717
aF-3.7142857142857153
aF11.760000000000005
aF-0.48571428571428577
aF-6.857142857142858
aF8.89
aF4.371428571428572
aF5.542857142857143
aF3.950000000000003
aF14.514285714285705
aF14.509999999999991
aF-1.799999999999999
aF6.057142857142857
aF4.25714285714286
aF4.260000000000005
aF3.7142857142857135
aF-0.4285714285714288
aF1.1428571428571423
aF4.0285714285714285
aF-3.2285714285714295
aa(lp53
F27.764705882352942
aF57.35294117647059
aF48.41
aF8.352941176470589
aF20.558823529411764
aF40.63
aF14.588235294117647
aF19.176470588235293
aF76.07
aF78.47058823529412
aF78.47
aF10.882352941176471
aF25.705882352941178
aF36.588235294117645
aF36.59
aF15.970588235294118
aF11.588235294117647
aF4.9411764705882355
aF5.176470588235294
aF16.470588235294116
aF25.176470588235293
aF59.5
aF42.31
aF4.235294117647059
aF14.058823529411764
aF30.13
aF11.823529411764707
aF17.823529411764707
aF66.34
aF66.41176470588235
aF66.41
aF11.470588235294118
aF20.764705882352942
aF32.23529411764706
aF32.24
aF9.764705882352942
aF10.852941176470589
aF5.647058823529412
aF2.323529411764706
aF17.61764705882353
aF2.5882352941176485
aF-2.147058823529413
aF6.099999999999994
aF4.11764705882353
aF6.5
aF10.500000000000004
aF2.7647058823529402
aF1.352941176470587
aF9.72999999999999
aF12.058823529411768
aF12.060000000000002
aF-0.5882352941176467
aF4.9411764705882355
aF4.352941176470587
aF4.350000000000001
aF6.205882352941176
aF0.735294117647058
aF-0.7058823529411766
aF2.8529411764705883
aF-1.147058823529413
aF27.583333333333332
aF56.666666666666664
aF48.68
aF7.083333333333333
aF18.38888888888889
aF38.52
aF14.722222222222221
aF20.305555555555557
aF72.5
aF76.97222222222223
aF76.97
aF12.305555555555555
aF26.805555555555557
aF39.111111111111114
aF39.11
aF14.11111111111111
aF13.63888888888889
aF6.583333333333333
aF6.722222222222222
aF17.75
aF22.666666666666668
aF59.333333333333336
aF38.2
aF6.916666666666667
aF20.805555555555557
aF33.24
aF13.36111111111111
aF19.666666666666668
aF67.94
aF65.61111111111111
aF65.61
aF13.055555555555555
aF19.666666666666668
aF32.72222222222222
aF32.72
aF13.083333333333334
aF12.083333333333334
aF6.027777777777778
aF2.361111111111111
aF18.333333333333332
aF4.916666666666664
aF-2.6666666666666714
aF10.479999999999997
aF0.16666666666666607
aF-2.416666666666668
aF5.280000000000001
aF1.3611111111111107
aF0.6388888888888893
aF4.560000000000002
aF11.361111111111114
aF11.36
aF-0.75
aF7.138888888888889
aF6.388888888888893
aF6.390000000000001
aF1.0277777777777768
aF1.5555555555555554
aF0.5555555555555554
aF4.361111111111111
aF-0.5833333333333321
aa(lp54
F24.771428571428572
aF55.91428571428571
aF44.3
aF5.3428571428571425
aF16.8
aF31.8
aF15.6
aF21.571428571428573
aF72.32
aF70.48571428571428
aF70.49
aF10.028571428571428
aF23.4
aF33.42857142857143
aF33.43
aF14.085714285714285
aF10.885714285714286
aF7.085714285714285
aF4.628571428571429
aF18.6
aF21.057142857142857
aF52.82857142857143
aF39.86
aF5.257142857142857
aF14.857142857142858
aF35.38
aF13.885714285714286
aF19.428571428571427
aF71.47
aF61.25714285714286
aF61.26
aF10.885714285714286
aF24.114285714285714
aF35.0
aF35.0
aF10.8
aF15.685714285714285
aF5.2
aF2.6
aF18.885714285714286
aF3.7142857142857153
aF3.085714285714282
aF4.439999999999998
aF0.08571428571428541
aF1.942857142857143
aF-3.580000000000002
aF1.7142857142857135
aF2.142857142857146
aF0.8499999999999943
aF9.22857142857142
aF9.229999999999997
aF-0.8571428571428577
aF-0.7142857142857153
aF-1.5714285714285694
aF-1.5700000000000003
aF3.2857142857142847
aF-4.799999999999999
aF1.8857142857142852
aF2.028571428571429
aF-0.2857142857142847
aF26.225
aF59.375
aF44.17
aF7.525
aF19.55
aF38.49
aF17.05
aF22.475
aF75.86
aF77.025
aF77.03
aF14.55
aF24.45
aF39.0
aF39.0
aF13.875
aF11.0
aF6.65
aF4.05
aF18.05
aF22.1
aF55.1
aF40.11
aF3.95
aF13.975
aF28.26
aF12.875
aF18.75
aF68.67
aF61.025
aF61.02
aF11.7
aF21.05
aF32.75
aF32.75
aF10.825
aF14.225
aF5.25
aF3.875
aF19.6
aF4.125
aF4.274999999999999
aF4.060000000000002
aF3.575
aF5.575000000000001
aF10.23
aF4.175000000000001
aF3.7250000000000014
aF7.189999999999998
aF16.000000000000007
aF16.009999999999998
aF2.8500000000000014
aF3.3999999999999986
aF6.25
aF6.25
aF3.0500000000000007
aF-3.2249999999999996
aF1.4000000000000004
aF0.17499999999999982
aF-1.5500000000000007
aa(lp55
F21.34285714285714
aF49.74285714285714
aF42.91
aF6.6571428571428575
aF18.82857142857143
aF35.36
aF13.971428571428572
aF18.428571428571427
aF75.81
aF63.31428571428572
aF63.31
aF9.514285714285714
aF22.771428571428572
aF32.285714285714285
aF32.29
aF10.485714285714286
aF10.628571428571428
aF5.6571428571428575
aF2.0
aF15.885714285714286
aF19.8
aF48.714285714285715
aF40.65
aF5.828571428571428
aF17.514285714285716
aF33.28
aF9.685714285714285
aF14.028571428571428
aF69.04
aF55.114285714285714
aF55.11
aF8.342857142857143
aF21.428571428571427
aF29.771428571428572
aF29.77
aF8.942857142857143
aF12.142857142857142
aF4.6571428571428575
aF1.9714285714285715
aF18.457142857142856
aF1.542857142857141
aF1.028571428571425
aF2.259999999999998
aF0.8285714285714292
aF1.3142857142857132
aF2.0799999999999983
aF4.2857142857142865
aF4.399999999999999
aF6.769999999999996
aF8.200000000000003
aF8.200000000000003
aF1.1714285714285708
aF1.3428571428571452
aF2.5142857142857125
aF2.5199999999999996
aF1.5428571428571427
aF-1.5142857142857142
aF1.0
aF0.02857142857142847
aF-2.5714285714285694
aF26.324324324324323
aF55.891891891891895
aF47.1
aF5.054054054054054
aF14.675675675675675
aF34.44
aF14.135135135135135
aF20.64864864864865
aF68.46
aF71.83783783783784
aF71.84
aF13.162162162162161
aF25.37837837837838
aF38.54054054054054
aF38.54
aF16.37837837837838
aF13.891891891891891
aF6.54054054054054
aF3.324324324324324
aF18.0
aF22.405405405405407
aF55.21621621621622
aF40.58
aF6.702702702702703
aF20.405405405405407
aF32.85
aF12.297297297297296
aF17.35135135135135
aF70.87
aF63.810810810810814
aF63.81
aF10.08108108108108
aF19.89189189189189
aF29.972972972972972
aF29.97
aF12.486486486486486
aF12.405405405405405
aF6.5675675675675675
aF2.5405405405405403
aF17.594594594594593
aF3.9189189189189158
aF0.6756756756756772
aF6.520000000000003
aF-1.6486486486486482
aF-5.729729729729732
aF1.5899999999999963
aF1.8378378378378386
aF3.2972972972972983
aF-2.410000000000011
aF8.027027027027025
aF8.030000000000001
aF3.0810810810810807
aF5.486486486486488
aF8.567567567567568
aF8.57
aF3.891891891891893
aF1.486486486486486
aF-0.027027027027027195
aF0.7837837837837838
aF0.40540540540540704
aa(lp56
F26.783783783783782
aF58.75675675675676
aF45.58
aF5.891891891891892
aF18.405405405405407
aF32.01
aF14.054054054054054
aF20.945945945945947
aF67.1
aF73.51351351351352
aF73.51
aF11.91891891891892
aF24.64864864864865
aF36.567567567567565
aF36.57
aF14.324324324324325
aF13.243243243243244
aF7.837837837837838
aF3.675675675675676
aF19.81081081081081
aF21.72972972972973
aF54.891891891891895
aF39.59
aF6.216216216216216
aF20.91891891891892
aF29.72
aF15.54054054054054
aF22.35135135135135
aF69.53
aF65.21621621621621
aF65.22
aF11.756756756756756
aF23.675675675675677
aF35.432432432432435
aF35.43
aF11.378378378378379
aF16.18918918918919
aF6.081081081081081
aF4.297297297297297
aF19.027027027027028
aF5.054054054054053
aF3.864864864864863
aF5.989999999999995
aF-0.3243243243243237
aF-2.5135135135135123
aF2.289999999999999
aF-1.486486486486486
aF-1.4054054054054035
aF-2.430000000000007
aF8.297297297297305
aF8.290000000000006
aF0.16216216216216317
aF0.9729729729729719
aF1.1351351351351298
aF1.1400000000000006
aF2.9459459459459456
aF-2.9459459459459456
aF1.756756756756757
aF-0.6216216216216215
aF0.7837837837837824
aF26.56756756756757
aF54.027027027027025
aF49.17
aF7.45945945945946
aF19.135135135135137
aF38.98
aF13.45945945945946
aF19.35135135135135
aF69.55
aF74.05405405405405
aF74.05
aF9.108108108108109
aF24.243243243243242
aF33.351351351351354
aF33.35
aF14.72972972972973
aF11.432432432432432
aF7.081081081081081
aF4.243243243243243
aF15.27027027027027
aF22.324324324324323
aF54.45945945945946
aF40.99
aF6.621621621621622
aF19.64864864864865
aF33.7
aF10.18918918918919
aF14.35135135135135
aF71.0
aF61.45945945945946
aF61.46
aF10.08108108108108
aF21.64864864864865
aF31.72972972972973
aF31.73
aF12.45945945945946
aF14.297297297297296
aF5.378378378378378
aF2.027027027027027
aF18.18918918918919
aF4.243243243243246
aF-0.4324324324324351
aF8.18
aF0.8378378378378377
aF-0.5135135135135123
aF5.279999999999994
aF3.27027027027027
aF5.0
aF-1.4500000000000028
aF12.59459459459459
aF12.589999999999996
aF-0.9729729729729719
aF2.594594594594593
aF1.6216216216216246
aF1.620000000000001
aF2.27027027027027
aF-2.864864864864865
aF1.7027027027027026
aF2.216216216216216
aF-2.9189189189189193
aa(lp57
F24.789473684210527
aF57.63157894736842
aF43.01
aF6.7631578947368425
aF20.05263157894737
aF33.73
aF16.07894736842105
aF22.842105263157894
aF70.39
aF72.42105263157895
aF72.42
aF15.394736842105264
aF23.210526315789473
aF38.60526315789474
aF38.61
aF15.5
aF11.868421052631579
aF5.605263157894737
aF4.078947368421052
aF18.05263157894737
aF22.0
aF52.81578947368421
aF41.65
aF5.5
aF17.0
aF32.35
aF14.026315789473685
aF20.657894736842106
aF67.9
aF63.526315789473685
aF63.53
aF10.973684210526315
aF21.236842105263158
aF32.21052631578947
aF32.21
aF11.5
aF13.394736842105264
aF6.131578947368421
aF2.973684210526316
aF21.0
aF2.7894736842105274
aF4.815789473684205
aF1.3599999999999994
aF1.2631578947368425
aF3.05263157894737
aF1.3799999999999955
aF2.0526315789473664
aF2.1842105263157876
aF2.489999999999995
aF8.89473684210526
aF8.89
aF4.421052631578949
aF1.973684210526315
aF6.394736842105267
aF6.399999999999999
aF4.0
aF-1.526315789473685
aF-0.5263157894736841
aF1.1052631578947363
aF-2.94736842105263
aF28.05263157894737
aF58.63157894736842
aF47.85
aF6.078947368421052
aF18.342105263157894
aF33.14
aF17.07894736842105
aF25.55263157894737
aF66.84
aF79.26315789473684
aF79.26
aF14.421052631578947
aF27.263157894736842
aF41.68421052631579
aF41.68
aF15.078947368421053
aF14.394736842105264
aF7.342105263157895
aF7.184210526315789
aF16.86842105263158
aF23.026315789473685
aF60.89473684210526
aF37.81
aF6.447368421052632
aF20.605263157894736
aF31.29
aF12.447368421052632
aF18.105263157894736
aF68.75
aF64.94736842105263
aF64.95
aF12.842105263157896
aF20.763157894736842
aF33.60526315789474
aF33.61
aF11.0
aF13.973684210526315
aF6.868421052631579
aF3.1315789473684212
aF20.92105263157895
aF5.026315789473685
aF-2.2631578947368425
aF10.04
aF-0.36842105263157965
aF-2.2631578947368425
aF1.8500000000000014
aF4.6315789473684195
aF7.447368421052634
aF-1.9099999999999966
aF14.315789473684205
aF14.310000000000002
aF1.5789473684210513
aF6.5
aF8.078947368421048
aF8.07
aF4.078947368421053
aF0.4210526315789487
aF0.47368421052631593
aF4.052631578947368
aF-4.05263157894737
aa(lp58
F22.236842105263158
aF50.28947368421053
aF44.22
aF6.842105263157895
aF20.026315789473685
aF34.17
aF17.394736842105264
aF23.57894736842105
aF73.77
aF68.71052631578948
aF68.71
aF9.289473684210526
aF23.36842105263158
aF32.6578947368421
aF32.66
aF12.210526315789474
aF12.0
aF7.026315789473684
aF2.263157894736842
aF18.026315789473685
aF21.18421052631579
aF50.94736842105263
aF41.58
aF5.105263157894737
aF16.105263157894736
aF31.7
aF11.947368421052632
aF17.605263157894736
aF67.86
aF59.421052631578945
aF59.42
aF8.81578947368421
aF21.236842105263158
aF30.05263157894737
aF30.05
aF10.710526315789474
aF13.921052631578947
aF5.2631578947368425
aF3.1578947368421053
aF20.5
aF1.0526315789473664
aF-0.6578947368421026
aF2.6400000000000006
aF1.7368421052631575
aF3.9210526315789487
aF2.4700000000000024
aF5.447368421052632
aF5.973684210526315
aF5.909999999999997
aF9.289473684210535
aF9.289999999999992
aF0.47368421052631504
aF2.1315789473684212
aF2.6052631578947327
aF2.609999999999996
aF1.5
aF-1.921052631578947
aF1.7631578947368416
aF-0.8947368421052633
aF-2.473684210526315
aF26.513513513513512
aF58.972972972972975
aF44.96
aF6.837837837837838
aF19.0
aF35.99
aF19.83783783783784
aF29.675675675675677
aF66.85
aF79.70270270270271
aF79.7
aF15.108108108108109
aF23.72972972972973
aF38.83783783783784
aF38.84
aF14.621621621621621
aF14.297297297297296
aF7.405405405405405
aF5.054054054054054
aF22.37837837837838
aF23.054054054054053
aF55.054054054054056
aF41.88
aF5.648648648648648
aF16.62162162162162
aF33.98
aF18.08108108108108
aF25.81081081081081
aF70.05
aF69.83783783783784
aF69.84
aF12.18918918918919
aF22.324324324324323
aF34.513513513513516
aF34.51
aF11.891891891891891
aF16.864864864864863
aF6.918918918918919
aF3.3513513513513513
aF24.16216216216216
aF3.4594594594594597
aF3.9189189189189193
aF3.0799999999999983
aF1.1891891891891895
aF2.378378378378379
aF2.010000000000005
aF1.756756756756758
aF3.8648648648648667
aF-3.200000000000003
aF9.86486486486487
aF9.86
aF2.9189189189189193
aF1.405405405405407
aF4.324324324324323
aF4.330000000000005
aF2.72972972972973
aF-2.5675675675675667
aF0.48648648648648596
aF1.702702702702703
aF-1.7837837837837824
aa(lp59
F26.783783783783782
aF58.75675675675676
aF45.58
aF5.891891891891892
aF18.405405405405407
aF32.01
aF14.054054054054054
aF20.945945945945947
aF67.1
aF73.51351351351352
aF73.51
aF11.91891891891892
aF24.64864864864865
aF36.567567567567565
aF36.57
aF14.324324324324325
aF13.243243243243244
aF7.837837837837838
aF3.675675675675676
aF19.81081081081081
aF21.72972972972973
aF54.891891891891895
aF39.59
aF6.216216216216216
aF20.91891891891892
aF29.72
aF15.54054054054054
aF22.35135135135135
aF69.53
aF65.21621621621621
aF65.22
aF11.756756756756756
aF23.675675675675677
aF35.432432432432435
aF35.43
aF11.378378378378379
aF16.18918918918919
aF6.081081081081081
aF4.297297297297297
aF19.027027027027028
aF5.054054054054053
aF3.864864864864863
aF5.989999999999995
aF-0.3243243243243237
aF-2.5135135135135123
aF2.289999999999999
aF-1.486486486486486
aF-1.4054054054054035
aF-2.430000000000007
aF8.297297297297305
aF8.290000000000006
aF0.16216216216216317
aF0.9729729729729719
aF1.1351351351351298
aF1.1400000000000006
aF2.9459459459459456
aF-2.9459459459459456
aF1.756756756756757
aF-0.6216216216216215
aF0.7837837837837824
aF26.324324324324323
aF55.891891891891895
aF47.1
aF5.054054054054054
aF14.675675675675675
aF34.44
aF14.135135135135135
aF20.64864864864865
aF68.46
aF71.83783783783784
aF71.84
aF13.162162162162161
aF25.37837837837838
aF38.54054054054054
aF38.54
aF16.37837837837838
aF13.891891891891891
aF6.54054054054054
aF3.324324324324324
aF18.0
aF22.405405405405407
aF55.21621621621622
aF40.58
aF6.702702702702703
aF20.405405405405407
aF32.85
aF12.297297297297296
aF17.35135135135135
aF70.87
aF63.810810810810814
aF63.81
aF10.08108108108108
aF19.89189189189189
aF29.972972972972972
aF29.97
aF12.486486486486486
aF12.405405405405405
aF6.5675675675675675
aF2.5405405405405403
aF17.594594594594593
aF3.9189189189189158
aF0.6756756756756772
aF6.520000000000003
aF-1.6486486486486482
aF-5.729729729729732
aF1.5899999999999963
aF1.8378378378378386
aF3.2972972972972983
aF-2.410000000000011
aF8.027027027027025
aF8.030000000000001
aF3.0810810810810807
aF5.486486486486488
aF8.567567567567568
aF8.57
aF3.891891891891893
aF1.486486486486486
aF-0.027027027027027195
aF0.7837837837837838
aF0.40540540540540704
aa(lp60
F27.583333333333332
aF56.666666666666664
aF48.68
aF7.083333333333333
aF18.38888888888889
aF38.52
aF14.722222222222221
aF20.305555555555557
aF72.5
aF76.97222222222223
aF76.97
aF12.305555555555555
aF26.805555555555557
aF39.111111111111114
aF39.11
aF14.11111111111111
aF13.63888888888889
aF6.583333333333333
aF6.722222222222222
aF17.75
aF22.666666666666668
aF59.333333333333336
aF38.2
aF6.916666666666667
aF20.805555555555557
aF33.24
aF13.36111111111111
aF19.666666666666668
aF67.94
aF65.61111111111111
aF65.61
aF13.055555555555555
aF19.666666666666668
aF32.72222222222222
aF32.72
aF13.083333333333334
aF12.083333333333334
aF6.027777777777778
aF2.361111111111111
aF18.333333333333332
aF4.916666666666664
aF-2.6666666666666714
aF10.479999999999997
aF0.16666666666666607
aF-2.416666666666668
aF5.280000000000001
aF1.3611111111111107
aF0.6388888888888893
aF4.560000000000002
aF11.361111111111114
aF11.36
aF-0.75
aF7.138888888888889
aF6.388888888888893
aF6.390000000000001
aF1.0277777777777768
aF1.5555555555555554
aF0.5555555555555554
aF4.361111111111111
aF-0.5833333333333321
aF26.225
aF59.375
aF44.17
aF7.525
aF19.55
aF38.49
aF17.05
aF22.475
aF75.86
aF77.025
aF77.03
aF14.55
aF24.45
aF39.0
aF39.0
aF13.875
aF11.0
aF6.65
aF4.05
aF18.05
aF22.1
aF55.1
aF40.11
aF3.95
aF13.975
aF28.26
aF12.875
aF18.75
aF68.67
aF61.025
aF61.02
aF11.7
aF21.05
aF32.75
aF32.75
aF10.825
aF14.225
aF5.25
aF3.875
aF19.6
aF4.125
aF4.274999999999999
aF4.060000000000002
aF3.575
aF5.575000000000001
aF10.23
aF4.175000000000001
aF3.7250000000000014
aF7.189999999999998
aF16.000000000000007
aF16.009999999999998
aF2.8500000000000014
aF3.3999999999999986
aF6.25
aF6.25
aF3.0500000000000007
aF-3.2249999999999996
aF1.4000000000000004
aF0.17499999999999982
aF-1.5500000000000007
aa(lp61
F22.236842105263158
aF50.28947368421053
aF44.22
aF6.842105263157895
aF20.026315789473685
aF34.17
aF17.394736842105264
aF23.57894736842105
aF73.77
aF68.71052631578948
aF68.71
aF9.289473684210526
aF23.36842105263158
aF32.6578947368421
aF32.66
aF12.210526315789474
aF12.0
aF7.026315789473684
aF2.263157894736842
aF18.026315789473685
aF21.18421052631579
aF50.94736842105263
aF41.58
aF5.105263157894737
aF16.105263157894736
aF31.7
aF11.947368421052632
aF17.605263157894736
aF67.86
aF59.421052631578945
aF59.42
aF8.81578947368421
aF21.236842105263158
aF30.05263157894737
aF30.05
aF10.710526315789474
aF13.921052631578947
aF5.2631578947368425
aF3.1578947368421053
aF20.5
aF1.0526315789473664
aF-0.6578947368421026
aF2.6400000000000006
aF1.7368421052631575
aF3.9210526315789487
aF2.4700000000000024
aF5.447368421052632
aF5.973684210526315
aF5.909999999999997
aF9.289473684210535
aF9.289999999999992
aF0.47368421052631504
aF2.1315789473684212
aF2.6052631578947327
aF2.609999999999996
aF1.5
aF-1.921052631578947
aF1.7631578947368416
aF-0.8947368421052633
aF-2.473684210526315
aF26.324324324324323
aF55.891891891891895
aF47.1
aF5.054054054054054
aF14.675675675675675
aF34.44
aF14.135135135135135
aF20.64864864864865
aF68.46
aF71.83783783783784
aF71.84
aF13.162162162162161
aF25.37837837837838
aF38.54054054054054
aF38.54
aF16.37837837837838
aF13.891891891891891
aF6.54054054054054
aF3.324324324324324
aF18.0
aF22.405405405405407
aF55.21621621621622
aF40.58
aF6.702702702702703
aF20.405405405405407
aF32.85
aF12.297297297297296
aF17.35135135135135
aF70.87
aF63.810810810810814
aF63.81
aF10.08108108108108
aF19.89189189189189
aF29.972972972972972
aF29.97
aF12.486486486486486
aF12.405405405405405
aF6.5675675675675675
aF2.5405405405405403
aF17.594594594594593
aF3.9189189189189158
aF0.6756756756756772
aF6.520000000000003
aF-1.6486486486486482
aF-5.729729729729732
aF1.5899999999999963
aF1.8378378378378386
aF3.2972972972972983
aF-2.410000000000011
aF8.027027027027025
aF8.030000000000001
aF3.0810810810810807
aF5.486486486486488
aF8.567567567567568
aF8.57
aF3.891891891891893
aF1.486486486486486
aF-0.027027027027027195
aF0.7837837837837838
aF0.40540540540540704
aa(lp62
F24.789473684210527
aF57.63157894736842
aF43.01
aF6.7631578947368425
aF20.05263157894737
aF33.73
aF16.07894736842105
aF22.842105263157894
aF70.39
aF72.42105263157895
aF72.42
aF15.394736842105264
aF23.210526315789473
aF38.60526315789474
aF38.61
aF15.5
aF11.868421052631579
aF5.605263157894737
aF4.078947368421052
aF18.05263157894737
aF22.0
aF52.81578947368421
aF41.65
aF5.5
aF17.0
aF32.35
aF14.026315789473685
aF20.657894736842106
aF67.9
aF63.526315789473685
aF63.53
aF10.973684210526315
aF21.236842105263158
aF32.21052631578947
aF32.21
aF11.5
aF13.394736842105264
aF6.131578947368421
aF2.973684210526316
aF21.0
aF2.7894736842105274
aF4.815789473684205
aF1.3599999999999994
aF1.2631578947368425
aF3.05263157894737
aF1.3799999999999955
aF2.0526315789473664
aF2.1842105263157876
aF2.489999999999995
aF8.89473684210526
aF8.89
aF4.421052631578949
aF1.973684210526315
aF6.394736842105267
aF6.399999999999999
aF4.0
aF-1.526315789473685
aF-0.5263157894736841
aF1.1052631578947363
aF-2.94736842105263
aF26.225
aF59.375
aF44.17
aF7.525
aF19.55
aF38.49
aF17.05
aF22.475
aF75.86
aF77.025
aF77.03
aF14.55
aF24.45
aF39.0
aF39.0
aF13.875
aF11.0
aF6.65
aF4.05
aF18.05
aF22.1
aF55.1
aF40.11
aF3.95
aF13.975
aF28.26
aF12.875
aF18.75
aF68.67
aF61.025
aF61.02
aF11.7
aF21.05
aF32.75
aF32.75
aF10.825
aF14.225
aF5.25
aF3.875
aF19.6
aF4.125
aF4.274999999999999
aF4.060000000000002
aF3.575
aF5.575000000000001
aF10.23
aF4.175000000000001
aF3.7250000000000014
aF7.189999999999998
aF16.000000000000007
aF16.009999999999998
aF2.8500000000000014
aF3.3999999999999986
aF6.25
aF6.25
aF3.0500000000000007
aF-3.2249999999999996
aF1.4000000000000004
aF0.17499999999999982
aF-1.5500000000000007
aa(lp63
F22.236842105263158
aF50.28947368421053
aF44.22
aF6.842105263157895
aF20.026315789473685
aF34.17
aF17.394736842105264
aF23.57894736842105
aF73.77
aF68.71052631578948
aF68.71
aF9.289473684210526
aF23.36842105263158
aF32.6578947368421
aF32.66
aF12.210526315789474
aF12.0
aF7.026315789473684
aF2.263157894736842
aF18.026315789473685
aF21.18421052631579
aF50.94736842105263
aF41.58
aF5.105263157894737
aF16.105263157894736
aF31.7
aF11.947368421052632
aF17.605263157894736
aF67.86
aF59.421052631578945
aF59.42
aF8.81578947368421
aF21.236842105263158
aF30.05263157894737
aF30.05
aF10.710526315789474
aF13.921052631578947
aF5.2631578947368425
aF3.1578947368421053
aF20.5
aF1.0526315789473664
aF-0.6578947368421026
aF2.6400000000000006
aF1.7368421052631575
aF3.9210526315789487
aF2.4700000000000024
aF5.447368421052632
aF5.973684210526315
aF5.909999999999997
aF9.289473684210535
aF9.289999999999992
aF0.47368421052631504
aF2.1315789473684212
aF2.6052631578947327
aF2.609999999999996
aF1.5
aF-1.921052631578947
aF1.7631578947368416
aF-0.8947368421052633
aF-2.473684210526315
aF26.225
aF59.375
aF44.17
aF7.525
aF19.55
aF38.49
aF17.05
aF22.475
aF75.86
aF77.025
aF77.03
aF14.55
aF24.45
aF39.0
aF39.0
aF13.875
aF11.0
aF6.65
aF4.05
aF18.05
aF22.1
aF55.1
aF40.11
aF3.95
aF13.975
aF28.26
aF12.875
aF18.75
aF68.67
aF61.025
aF61.02
aF11.7
aF21.05
aF32.75
aF32.75
aF10.825
aF14.225
aF5.25
aF3.875
aF19.6
aF4.125
aF4.274999999999999
aF4.060000000000002
aF3.575
aF5.575000000000001
aF10.23
aF4.175000000000001
aF3.7250000000000014
aF7.189999999999998
aF16.000000000000007
aF16.009999999999998
aF2.8500000000000014
aF3.3999999999999986
aF6.25
aF6.25
aF3.0500000000000007
aF-3.2249999999999996
aF1.4000000000000004
aF0.17499999999999982
aF-1.5500000000000007
aa(lp64
I0
aI1
aI1
aI0
aI1
aI0
aI1
aI1
aI0
aI1
aI0
aI0
aI1
aI0
aI0
aI0
aI0
aI0
aI0
aI0
aI0
aI0
aI1
aI1
aI0
aI1
aI0
aI0
aI1
aI0
aI0
aI0
aI0
aI0
aI0
aI0
aI1
aI1
aI0
aI1
aI0
aI1
aI0
aI0
aI0
aI1
aI0
aI1
aI0
aI0
aI0
aI1
aI0
aI0
aI0
aI1
aI1
aI1
aI0
aI0
aI1
aI0
aI0
atp65
.